

Microchip MPLAB XC8 Assembler V2.50 build 20240725155939 
                                                                                               Sat Mar 29 23:37:39 2025

Microchip MPLAB XC8 C Compiler v2.50 (Free license) build 20240725155939 Og1 
     1                           	processor	16F877A
     2                           	pagewidth 120
     3                           	opt	flic
     4                           	psect	strings,global,class=STRING,space=0,delta=2,noexec
     5                           	psect	cinit,global,class=CODE,space=0,merge=1,delta=2
     6                           	psect	bssBANK0,global,class=BANK0,space=1,delta=1,noexec
     7                           	psect	cstackCOMMON,global,class=COMMON,space=1,delta=1,noexec
     8                           	psect	cstackBANK0,global,class=BANK0,space=1,delta=1,noexec
     9                           	psect	maintext,global,class=CODE,space=0,split=1,delta=2
    10                           	psect	text1,local,class=CODE,space=0,merge=1,delta=2
    11                           	psect	text2,local,class=CODE,space=0,merge=1,delta=2,group=1
    12                           	psect	text3,local,class=CODE,space=0,merge=1,delta=2
    13                           	psect	text4,local,class=CODE,space=0,merge=1,delta=2
    14                           	psect	text5,local,class=CODE,space=0,merge=1,delta=2
    15                           	psect	text6,local,class=CODE,space=0,merge=1,delta=2
    16                           	psect	text7,local,class=CODE,space=0,merge=1,delta=2
    17                           	psect	text8,local,class=CODE,space=0,merge=1,delta=2
    18                           	psect	text9,local,class=CODE,space=0,merge=1,delta=2
    19                           	psect	text10,local,class=CODE,space=0,merge=1,delta=2
    20                           	psect	text11,local,class=CODE,space=0,merge=1,delta=2,group=1
    21                           	psect	text12,local,class=CODE,space=0,merge=1,delta=2
    22                           	psect	text13,local,class=CODE,space=0,merge=1,delta=2,group=1
    23                           	psect	text14,local,class=CODE,space=0,merge=1,delta=2,group=1
    24                           	psect	text15,local,class=CODE,space=0,merge=1,delta=2
    25                           	psect	text16,local,class=CODE,space=0,merge=1,delta=2
    26                           	psect	text17,local,class=CODE,space=0,merge=1,delta=2
    27                           	psect	text18,local,class=CODE,space=0,merge=1,delta=2
    28                           	psect	text19,local,class=CODE,space=0,merge=1,delta=2
    29                           	psect	config,global,abs,ovrld,class=CONFIG,space=4,delta=2,noexec
    30                           	dabs	1,0x7E,2
    31     0000                     
    32                           ; Generated 25/07/2024 GMT
    33                           ; 
    34                           ; Copyright © 2024, Microchip Technology Inc. and its subsidiaries ("Microchip")
    35                           ; All rights reserved.
    36                           ; 
    37                           ; This software is developed by Microchip Technology Inc. and its subsidiaries ("Microch
      +                          ip").
    38                           ; 
    39                           ; Redistribution and use in source and binary forms, with or without modification, are
    40                           ; permitted provided that the following conditions are met:
    41                           ; 
    42                           ;     1. Redistributions of source code must retain the above copyright notice, this lis
      +                          t of
    43                           ;        conditions and the following disclaimer.
    44                           ; 
    45                           ;     2. Redistributions in binary form must reproduce the above copyright notice, this 
      +                          list
    46                           ;        of conditions and the following disclaimer in the documentation and/or other
    47                           ;        materials provided with the distribution. Publication is not required when
    48                           ;        this file is used in an embedded application.
    49                           ; 
    50                           ;     3. Microchip's name may not be used to endorse or promote products derived from th
      +                          is
    51                           ;        software without specific prior written permission.
    52                           ; 
    53                           ; THIS SOFTWARE IS PROVIDED BY MICROCHIP "AS IS" AND ANY EXPRESS OR IMPLIED WARRANTIES,
    54                           ; INCLUDING, BUT NOT LIMITED TO, THE IMPLIED WARRANTIES OF MERCHANTABILITY AND FITNESS F
      +                          OR
    55                           ; PURPOSE ARE DISCLAIMED.  IN NO EVENT SHALL MICROCHIP BE LIABLE FOR ANY DIRECT, INDIREC
      +                          T,
    56                           ; INCIDENTAL, SPECIAL, EXEMPLARY, OR CONSEQUENTIAL DAMAGES (INCLUDING BUT NOT LIMITED TO
    57                           ; PROCUREMENT OF SUBSTITUTE GOODS OR SERVICES; LOSS OF USE, DATA OR PROFITS; OR BUSINESS
    58                           ; INTERRUPTION) HOWSOEVER CAUSED AND ON ANY THEORY OF LIABILITY, WHETHER IN CONTRACT, ST
      +                          RICT
    59                           ; LIABILITY, OR TORT (INCLUDING NEGLIGENCE OR OTHERWISE) ARISING IN ANY WAY OUT OF THE U
      +                          SE OF
    60                           ; THIS SOFTWARE, EVEN IF ADVISED OF THE POSSIBILITY OF SUCH DAMAGE.
    61                           ; 
    62                           ; 
    63                           ; Code-generator required, PIC16F877A Definitions
    64                           ; 
    65                           ; SFR Addresses
    66     0004                     fsr             equ	4
    67     0004                     fsr0            equ	4
    68     0000                     indf            equ	0
    69     0000                     indf0           equ	0
    70     0002                     pc              equ	2
    71     0002                     pcl             equ	2
    72     000A                     pclath          equ	10
    73     0003                     status          equ	3
    74     0000                     INDF            equ	0	;# 
    75     0001                     TMR0            equ	1	;# 
    76     0002                     PCL             equ	2	;# 
    77     0003                     STATUS          equ	3	;# 
    78     0004                     FSR             equ	4	;# 
    79     0005                     PORTA           equ	5	;# 
    80     0006                     PORTB           equ	6	;# 
    81     0007                     PORTC           equ	7	;# 
    82     0008                     PORTD           equ	8	;# 
    83     0009                     PORTE           equ	9	;# 
    84     000A                     PCLATH          equ	10	;# 
    85     000B                     INTCON          equ	11	;# 
    86     000C                     PIR1            equ	12	;# 
    87     000D                     PIR2            equ	13	;# 
    88     000E                     TMR1            equ	14	;# 
    89     000E                     TMR1L           equ	14	;# 
    90     000F                     TMR1H           equ	15	;# 
    91     0010                     T1CON           equ	16	;# 
    92     0011                     TMR2            equ	17	;# 
    93     0012                     T2CON           equ	18	;# 
    94     0013                     SSPBUF          equ	19	;# 
    95     0014                     SSPCON          equ	20	;# 
    96     0015                     CCPR1           equ	21	;# 
    97     0015                     CCPR1L          equ	21	;# 
    98     0016                     CCPR1H          equ	22	;# 
    99     0017                     CCP1CON         equ	23	;# 
   100     0018                     RCSTA           equ	24	;# 
   101     0019                     TXREG           equ	25	;# 
   102     001A                     RCREG           equ	26	;# 
   103     001B                     CCPR2           equ	27	;# 
   104     001B                     CCPR2L          equ	27	;# 
   105     001C                     CCPR2H          equ	28	;# 
   106     001D                     CCP2CON         equ	29	;# 
   107     001E                     ADRESH          equ	30	;# 
   108     001F                     ADCON0          equ	31	;# 
   109     0081                     OPTION_REG      equ	129	;# 
   110     0085                     TRISA           equ	133	;# 
   111     0086                     TRISB           equ	134	;# 
   112     0087                     TRISC           equ	135	;# 
   113     0088                     TRISD           equ	136	;# 
   114     0089                     TRISE           equ	137	;# 
   115     008C                     PIE1            equ	140	;# 
   116     008D                     PIE2            equ	141	;# 
   117     008E                     PCON            equ	142	;# 
   118     0091                     SSPCON2         equ	145	;# 
   119     0092                     PR2             equ	146	;# 
   120     0093                     SSPADD          equ	147	;# 
   121     0094                     SSPSTAT         equ	148	;# 
   122     0098                     TXSTA           equ	152	;# 
   123     0099                     SPBRG           equ	153	;# 
   124     009C                     CMCON           equ	156	;# 
   125     009D                     CVRCON          equ	157	;# 
   126     009E                     ADRESL          equ	158	;# 
   127     009F                     ADCON1          equ	159	;# 
   128     010C                     EEDATA          equ	268	;# 
   129     010D                     EEADR           equ	269	;# 
   130     010E                     EEDATH          equ	270	;# 
   131     010F                     EEADRH          equ	271	;# 
   132     018C                     EECON1          equ	396	;# 
   133     018D                     EECON2          equ	397	;# 
   134     0000                     INDF            equ	0	;# 
   135     0001                     TMR0            equ	1	;# 
   136     0002                     PCL             equ	2	;# 
   137     0003                     STATUS          equ	3	;# 
   138     0004                     FSR             equ	4	;# 
   139     0005                     PORTA           equ	5	;# 
   140     0006                     PORTB           equ	6	;# 
   141     0007                     PORTC           equ	7	;# 
   142     0008                     PORTD           equ	8	;# 
   143     0009                     PORTE           equ	9	;# 
   144     000A                     PCLATH          equ	10	;# 
   145     000B                     INTCON          equ	11	;# 
   146     000C                     PIR1            equ	12	;# 
   147     000D                     PIR2            equ	13	;# 
   148     000E                     TMR1            equ	14	;# 
   149     000E                     TMR1L           equ	14	;# 
   150     000F                     TMR1H           equ	15	;# 
   151     0010                     T1CON           equ	16	;# 
   152     0011                     TMR2            equ	17	;# 
   153     0012                     T2CON           equ	18	;# 
   154     0013                     SSPBUF          equ	19	;# 
   155     0014                     SSPCON          equ	20	;# 
   156     0015                     CCPR1           equ	21	;# 
   157     0015                     CCPR1L          equ	21	;# 
   158     0016                     CCPR1H          equ	22	;# 
   159     0017                     CCP1CON         equ	23	;# 
   160     0018                     RCSTA           equ	24	;# 
   161     0019                     TXREG           equ	25	;# 
   162     001A                     RCREG           equ	26	;# 
   163     001B                     CCPR2           equ	27	;# 
   164     001B                     CCPR2L          equ	27	;# 
   165     001C                     CCPR2H          equ	28	;# 
   166     001D                     CCP2CON         equ	29	;# 
   167     001E                     ADRESH          equ	30	;# 
   168     001F                     ADCON0          equ	31	;# 
   169     0081                     OPTION_REG      equ	129	;# 
   170     0085                     TRISA           equ	133	;# 
   171     0086                     TRISB           equ	134	;# 
   172     0087                     TRISC           equ	135	;# 
   173     0088                     TRISD           equ	136	;# 
   174     0089                     TRISE           equ	137	;# 
   175     008C                     PIE1            equ	140	;# 
   176     008D                     PIE2            equ	141	;# 
   177     008E                     PCON            equ	142	;# 
   178     0091                     SSPCON2         equ	145	;# 
   179     0092                     PR2             equ	146	;# 
   180     0093                     SSPADD          equ	147	;# 
   181     0094                     SSPSTAT         equ	148	;# 
   182     0098                     TXSTA           equ	152	;# 
   183     0099                     SPBRG           equ	153	;# 
   184     009C                     CMCON           equ	156	;# 
   185     009D                     CVRCON          equ	157	;# 
   186     009E                     ADRESL          equ	158	;# 
   187     009F                     ADCON1          equ	159	;# 
   188     010C                     EEDATA          equ	268	;# 
   189     010D                     EEADR           equ	269	;# 
   190     010E                     EEDATH          equ	270	;# 
   191     010F                     EEADRH          equ	271	;# 
   192     018C                     EECON1          equ	396	;# 
   193     018D                     EECON2          equ	397	;# 
   194                           
   195                           	psect	strings
   196     0003                     __pstrings:
   197     0003                     stringtab:
   198     0003                     __stringtab:
   199                           
   200                           ;	String table - string pointers are 1 byte each
   201     0003  1BFF               	btfsc	btemp+1,7
   202     0004  280D               	ljmp	stringcode
   203     0005  1383               	bcf	3,7
   204     0006  187F               	btfsc	btemp+1,0
   205     0007  1783               	bsf	3,7
   206     0008  0800               	movf	0,w
   207     0009  0A84               	incf	4,f
   208     000A  1903               	skipnz
   209     000B  0AFF               	incf	btemp+1,f
   210     000C  0008               	return
   211     000D                     stringcode:
   212     000D                     stringdir:
   213     000D  3000               	movlw	high stringdir
   214     000E  008A               	movwf	10
   215     000F  0804               	movf	4,w
   216     0010  0A84               	incf	4,f
   217     0011  0782               	addwf	2,f
   218     0012                     __stringbase:
   219     0012  3400               	retlw	0
   220     0013                     __end_of__stringtab:
   221     0013                     _ppm_lookup:
   222     0013  340A               	retlw	10
   223     0014  3400               	retlw	0
   224     0015  3414               	retlw	20
   225     0016  3400               	retlw	0
   226     0017  3423               	retlw	35
   227     0018  3400               	retlw	0
   228     0019  3432               	retlw	50
   229     001A  3400               	retlw	0
   230     001B  344B               	retlw	75
   231     001C  3400               	retlw	0
   232     001D  3464               	retlw	100
   233     001E  3400               	retlw	0
   234     001F  3496               	retlw	150
   235     0020  3400               	retlw	0
   236     0021  34C8               	retlw	200
   237     0022  3400               	retlw	0
   238     0023  342C               	retlw	44
   239     0024  3401               	retlw	1
   240     0025  34F4               	retlw	244
   241     0026  3401               	retlw	1
   242     0027                     __end_of_ppm_lookup:
   243     001E                     _ADRESH         set	30
   244     001F                     _ADCON0         set	31
   245     0017                     _CCP1CONbits    set	23
   246     0015                     _CCPR1L         set	21
   247     0012                     _T2CON          set	18
   248     0017                     _CCP1CON        set	23
   249     0007                     _PORTCbits      set	7
   250     0043                     _RD3            set	67
   251     0042                     _RD2            set	66
   252     0047                     _RD7            set	71
   253     0046                     _RD6            set	70
   254     0045                     _RD5            set	69
   255     0044                     _RD4            set	68
   256     009E                     _ADRESL         set	158
   257     0092                     _PR2            set	146
   258     009F                     _ADCON1         set	159
   259     0087                     _TRISCbits      set	135
   260     0088                     _TRISD          set	136
   261     0027                     STR_4:
   262     0027  3420               	retlw	32	;' '
   263     0028  3420               	retlw	32	;' '
   264     0029  3420               	retlw	32	;' '
   265     002A  3420               	retlw	32	;' '
   266     002B  3420               	retlw	32	;' '
   267     002C  3420               	retlw	32	;' '
   268     002D  3420               	retlw	32	;' '
   269     002E  3420               	retlw	32	;' '
   270     002F  3420               	retlw	32	;' '
   271     0030  3420               	retlw	32	;' '
   272     0031  3420               	retlw	32	;' '
   273     0032  3420               	retlw	32	;' '
   274     0033  3420               	retlw	32	;' '
   275     0034  3420               	retlw	32	;' '
   276     0035  3420               	retlw	32	;' '
   277     0036  3400               	retlw	0
   278     0037                     STR_3:
   279     0037  3447               	retlw	71	;'G'
   280     0038  3461               	retlw	97	;'a'
   281     0039  3473               	retlw	115	;'s'
   282     003A  3420               	retlw	32	;' '
   283     003B  3444               	retlw	68	;'D'
   284     003C  3465               	retlw	101	;'e'
   285     003D  3474               	retlw	116	;'t'
   286     003E  3465               	retlw	101	;'e'
   287     003F  3463               	retlw	99	;'c'
   288     0040  3474               	retlw	116	;'t'
   289     0041  3465               	retlw	101	;'e'
   290     0042  3464               	retlw	100	;'d'
   291     0043  3421               	retlw	33	;'!'
   292     0044  3400               	retlw	0
   293     0045                     STR_1:
   294     0045  3447               	retlw	71	;'G'
   295     0046  3461               	retlw	97	;'a'
   296     0047  3473               	retlw	115	;'s'
   297     0048  3420               	retlw	32	;' '
   298     0049  344C               	retlw	76	;'L'
   299     004A  3465               	retlw	101	;'e'
   300     004B  3476               	retlw	118	;'v'
   301     004C  3465               	retlw	101	;'e'
   302     004D  346C               	retlw	108	;'l'
   303     004E  343A               	retlw	58	;':'
   304     004F  3400               	retlw	0
   305     0032                     STR_2           equ	STR_4+11
   306                           
   307                           	psect	cinit
   308     07F8                     start_initialization:	
   309                           ; #config settings
   310                           
   311     07F8                     __initialization:
   312                           
   313                           ; Clear objects allocated to BANK0
   314     07F8  1283               	bcf	3,5	;RP0=0, select bank0
   315     07F9  1303               	bcf	3,6	;RP1=0, select bank0
   316     07FA  01B1               	clrf	__pbssBANK0& (0+127)
   317     07FB  01B2               	clrf	(__pbssBANK0+1)& (0+127)
   318     07FC                     end_of_initialization:	
   319                           ;End of C runtime variable initialization code
   320                           
   321     07FC                     __end_of__initialization:
   322     07FC  0183               	clrf	3
   323     07FD  120A  118A  2DAB   	ljmp	_main	;jump to C main() function
   324                           
   325                           	psect	bssBANK0
   326     0031                     __pbssBANK0:
   327     0031                     _gas_alert_counter:
   328     0031                     	ds	2
   329                           
   330                           	psect	cstackCOMMON
   331     0070                     __pcstackCOMMON:
   332     0070                     ?_init_system:
   333     0070                     ?_init_pwm:	
   334                           ; 1 bytes @ 0x0
   335                           
   336     0070                     ?_delay_ms:	
   337                           ; 1 bytes @ 0x0
   338                           
   339     0070                     ?_Lcd_SetBit:	
   340                           ; 1 bytes @ 0x0
   341                           
   342     0070                     ?_Lcd_Cmd:	
   343                           ; 1 bytes @ 0x0
   344                           
   345     0070                     ?_Lcd_Clear:	
   346                           ; 1 bytes @ 0x0
   347                           
   348     0070                     ?_Lcd_Start:	
   349                           ; 1 bytes @ 0x0
   350                           
   351     0070                     ?_Lcd_Print_Char:	
   352                           ; 1 bytes @ 0x0
   353                           
   354     0070                     ?_main:	
   355                           ; 1 bytes @ 0x0
   356                           
   357     0070                     ?___wmul:	
   358                           ; 1 bytes @ 0x0
   359                           
   360     0070                     ?___lwmod:	
   361                           ; 2 bytes @ 0x0
   362                           
   363     0070                     ?___lldiv:	
   364                           ; 2 bytes @ 0x0
   365                           
   366     0070                     Lcd_SetBit@data_bit:	
   367                           ; 4 bytes @ 0x0
   368                           
   369     0070                     delay_ms@ms:	
   370                           ; 1 bytes @ 0x0
   371                           
   372     0070                     ___wmul@multiplier:	
   373                           ; 2 bytes @ 0x0
   374                           
   375     0070                     ___lwmod@divisor:	
   376                           ; 2 bytes @ 0x0
   377                           
   378     0070                     ___lldiv@divisor:	
   379                           ; 2 bytes @ 0x0
   380                           
   381     0070                     ??_Lcd_SetBit:	
   382                           ; 4 bytes @ 0x0
   383                           
   384                           
   385                           ; 1 bytes @ 0x0
   386     0070                     	ds	1
   387     0071                     ??_Lcd_Cmd:
   388     0071                     ??_Lcd_Print_Char:	
   389                           ; 1 bytes @ 0x1
   390                           
   391                           
   392                           ; 1 bytes @ 0x1
   393     0071                     	ds	1
   394     0072                     Lcd_Print_Char@Lower_Nibble:
   395     0072                     ___wmul@multiplicand:	
   396                           ; 1 bytes @ 0x2
   397                           
   398     0072                     ___lwmod@dividend:	
   399                           ; 2 bytes @ 0x2
   400                           
   401     0072                     ??_delay_ms:	
   402                           ; 2 bytes @ 0x2
   403                           
   404                           
   405                           ; 1 bytes @ 0x2
   406     0072                     	ds	1
   407     0073                     Lcd_Cmd@a:
   408     0073                     Lcd_Print_Char@Upper_Nibble:	
   409                           ; 1 bytes @ 0x3
   410                           
   411                           
   412                           ; 1 bytes @ 0x3
   413     0073                     	ds	1
   414     0074                     ?_Lcd_Set_Cursor:
   415     0074                     Lcd_Set_Cursor@b:	
   416                           ; 1 bytes @ 0x4
   417                           
   418     0074                     Lcd_Print_Char@data:	
   419                           ; 1 bytes @ 0x4
   420                           
   421     0074                     ___lwmod@counter:	
   422                           ; 1 bytes @ 0x4
   423                           
   424     0074                     ___wmul@product:	
   425                           ; 1 bytes @ 0x4
   426                           
   427     0074                     ___lldiv@dividend:	
   428                           ; 2 bytes @ 0x4
   429                           
   430     0074                     ??_Lcd_Clear:	
   431                           ; 4 bytes @ 0x4
   432                           
   433     0074                     ??_Lcd_Start:	
   434                           ; 1 bytes @ 0x4
   435                           
   436     0074                     ??___wmul:	
   437                           ; 1 bytes @ 0x4
   438                           
   439     0074                     ??___lwmod:	
   440                           ; 1 bytes @ 0x4
   441                           
   442                           
   443                           ; 1 bytes @ 0x4
   444     0074                     	ds	1
   445     0075                     Lcd_Print_Char@i:
   446     0075                     ??_Lcd_Set_Cursor:	
   447                           ; 2 bytes @ 0x5
   448                           
   449                           
   450                           ; 1 bytes @ 0x5
   451     0075                     	ds	1
   452     0076                     ?___lwdiv:
   453     0076                     Lcd_Set_Cursor@a:	
   454                           ; 2 bytes @ 0x6
   455                           
   456     0076                     ___lwdiv@divisor:	
   457                           ; 1 bytes @ 0x6
   458                           
   459     0076                     ??_init_system:	
   460                           ; 2 bytes @ 0x6
   461                           
   462                           
   463                           ; 1 bytes @ 0x6
   464     0076                     	ds	1
   465     0077                     Lcd_Set_Cursor@z:
   466     0077                     Lcd_Print_Char@i_169:	
   467                           ; 1 bytes @ 0x7
   468                           
   469                           
   470                           ; 2 bytes @ 0x7
   471     0077                     	ds	1
   472     0078                     Lcd_Set_Cursor@y:
   473     0078                     ___lwdiv@dividend:	
   474                           ; 1 bytes @ 0x8
   475                           
   476     0078                     ??___lldiv:	
   477                           ; 2 bytes @ 0x8
   478                           
   479                           
   480                           ; 1 bytes @ 0x8
   481     0078                     	ds	1
   482     0079                     ?_Lcd_Print_String:
   483     0079                     Lcd_Set_Cursor@temp:	
   484                           ; 1 bytes @ 0x9
   485                           
   486     0079                     Lcd_Print_String@a:	
   487                           ; 1 bytes @ 0x9
   488                           
   489     0079                     ___lldiv@quotient:	
   490                           ; 2 bytes @ 0x9
   491                           
   492                           
   493                           ; 4 bytes @ 0x9
   494     0079                     	ds	1
   495     007A                     ___lwdiv@quotient:
   496     007A                     ??___lwdiv:	
   497                           ; 2 bytes @ 0xA
   498                           
   499                           
   500                           ; 1 bytes @ 0xA
   501     007A                     	ds	1
   502     007B                     ??_Lcd_Print_String:
   503                           
   504                           ; 1 bytes @ 0xB
   505     007B                     	ds	1
   506     007C                     ___lwdiv@counter:
   507                           
   508                           ; 1 bytes @ 0xC
   509     007C                     	ds	1
   510     007D                     ___lldiv@counter:
   511     007D                     ??_init_pwm:	
   512                           ; 1 bytes @ 0xD
   513                           
   514                           
   515                           ; 1 bytes @ 0xD
   516     007D                     	ds	1
   517     007E                     ??_main:
   518                           
   519                           	psect	cstackBANK0
   520     0020                     __pcstackBANK0:	
   521                           ; 1 bytes @ 0xE
   522                           
   523     0020                     ?_pwm_set_duty:
   524     0020                     ?_read_adc:	
   525                           ; 1 bytes @ 0x0
   526                           
   527     0020                     ?_calculate_lpg_ppm:	
   528                           ; 2 bytes @ 0x0
   529                           
   530     0020                     Lcd_Print_String@i:	
   531                           ; 2 bytes @ 0x0
   532                           
   533     0020                     pwm_set_duty@duty:	
   534                           ; 2 bytes @ 0x0
   535                           
   536     0020                     calculate_lpg_ppm@adc_value:	
   537                           ; 2 bytes @ 0x0
   538                           
   539                           
   540                           ; 2 bytes @ 0x0
   541     0020                     	ds	2
   542     0022                     ?_Lcd_Print_Number:
   543     0022                     Lcd_Print_Number@num:	
   544                           ; 1 bytes @ 0x2
   545                           
   546     0022                     ??_read_adc:	
   547                           ; 2 bytes @ 0x2
   548                           
   549     0022                     ??_calculate_lpg_ppm:	
   550                           ; 1 bytes @ 0x2
   551                           
   552     0022                     ??_pwm_set_duty:	
   553                           ; 1 bytes @ 0x2
   554                           
   555                           
   556                           ; 1 bytes @ 0x2
   557     0022                     	ds	2
   558     0024                     calculate_lpg_ppm@rs:
   559     0024                     ??_Lcd_Print_Number:	
   560                           ; 2 bytes @ 0x4
   561                           
   562                           
   563                           ; 1 bytes @ 0x4
   564     0024                     	ds	1
   565     0025                     ?_check_gas_level:
   566     0025                     check_gas_level@gas_value:	
   567                           ; 1 bytes @ 0x5
   568                           
   569     0025                     Lcd_Print_Number@buffer:	
   570                           ; 2 bytes @ 0x5
   571                           
   572                           
   573                           ; 5 bytes @ 0x5
   574     0025                     	ds	1
   575     0026                     read_adc@channel:
   576     0026                     calculate_lpg_ppm@voltage_mv:	
   577                           ; 1 bytes @ 0x6
   578                           
   579                           
   580                           ; 2 bytes @ 0x6
   581     0026                     	ds	1
   582     0027                     read_adc@sum:
   583     0027                     ??_check_gas_level:	
   584                           ; 4 bytes @ 0x7
   585                           
   586                           
   587                           ; 1 bytes @ 0x7
   588     0027                     	ds	1
   589     0028                     calculate_lpg_ppm@rs_ro_ratio:
   590                           
   591                           ; 2 bytes @ 0x8
   592     0028                     	ds	2
   593     002A                     Lcd_Print_Number@i:
   594                           
   595                           ; 2 bytes @ 0xA
   596     002A                     	ds	1
   597     002B                     read_adc@i:
   598                           
   599                           ; 2 bytes @ 0xB
   600     002B                     	ds	2
   601     002D                     main@LPG_ppm:
   602                           
   603                           ; 2 bytes @ 0xD
   604     002D                     	ds	2
   605     002F                     main@gas_value:
   606                           
   607                           ; 2 bytes @ 0xF
   608     002F                     	ds	2
   609                           
   610                           	psect	maintext
   611     05AB                     __pmaintext:	
   612 ;;
   613 ;;Main: autosize = 0, tempsize = 0, incstack = 0, save=0
   614 ;;
   615 ;; *************** function _main *****************
   616 ;; Defined at:
   617 ;;		line 38 in file "C:/Users/GNKRISHNAN/MPLABXProjects/MINI_PROJECT.X/final.c"
   618 ;; Parameters:    Size  Location     Type
   619 ;;		None
   620 ;; Auto vars:     Size  Location     Type
   621 ;;  LPG_ppm         2   13[BANK0 ] unsigned int 
   622 ;;  gas_value       2   15[BANK0 ] unsigned int 
   623 ;; Return value:  Size  Location     Type
   624 ;;                  1    wreg      void 
   625 ;; Registers used:
   626 ;;		wreg, fsr0l, fsr0h, status,2, status,0, btemp+1, pclath, cstack
   627 ;; Tracked objects:
   628 ;;		On entry : B00/0
   629 ;;		On exit  : 0/0
   630 ;;		Unchanged: 0/0
   631 ;; Data sizes:     COMMON   BANK0   BANK1   BANK3   BANK2
   632 ;;      Params:         0       0       0       0       0
   633 ;;      Locals:         0       4       0       0       0
   634 ;;      Temps:          0       0       0       0       0
   635 ;;      Totals:         0       4       0       0       0
   636 ;;Total ram usage:        4 bytes
   637 ;; Hardware stack levels required when called: 4
   638 ;; This function calls:
   639 ;;		_Lcd_Clear
   640 ;;		_Lcd_Print_Number
   641 ;;		_Lcd_Print_String
   642 ;;		_Lcd_Set_Cursor
   643 ;;		_calculate_lpg_ppm
   644 ;;		_check_gas_level
   645 ;;		_delay_ms
   646 ;;		_init_pwm
   647 ;;		_init_system
   648 ;;		_read_adc
   649 ;; This function is called by:
   650 ;;		Startup code after reset
   651 ;; This function uses a non-reentrant model
   652 ;;
   653                           
   654     05AB                     _main:	
   655                           ;psect for function _main
   656                           
   657     05AB                     l1479:	
   658                           ;incstack = 0
   659                           ; Regs used in _main: [wreg-fsr0h+status,2+status,0+btemp+1+pclath+cstack]
   660                           
   661                           
   662                           ;C:/Users/GNKRISHNAN/MPLABXProjects/MINI_PROJECT.X/final.c: 39:     TRISD = 0x00;
   663     05AB  1683               	bsf	3,5	;RP0=1, select bank1
   664     05AC  1303               	bcf	3,6	;RP1=0, select bank1
   665     05AD  0188               	clrf	8	;volatile
   666     05AE                     l1481:
   667                           
   668                           ;C:/Users/GNKRISHNAN/MPLABXProjects/MINI_PROJECT.X/final.c: 40:     TRISCbits.TRISC2 = 0
      +                          ;
   669     05AE  1107               	bcf	7,2	;volatile
   670     05AF                     l1483:
   671                           
   672                           ;C:/Users/GNKRISHNAN/MPLABXProjects/MINI_PROJECT.X/final.c: 43:     init_system();
   673     05AF  120A  118A  21FD  120A  118A  	fcall	_init_system
   674     05B4                     l1485:
   675                           
   676                           ;C:/Users/GNKRISHNAN/MPLABXProjects/MINI_PROJECT.X/final.c: 44:     init_pwm();
   677     05B4  120A  118A  220D  120A  118A  	fcall	_init_pwm
   678     05B9                     l1487:
   679                           
   680                           ;C:/Users/GNKRISHNAN/MPLABXProjects/MINI_PROJECT.X/final.c: 45:     Lcd_Clear();
   681     05B9  120A  118A  21F0  120A  118A  	fcall	_Lcd_Clear
   682     05BE                     l1489:
   683                           
   684                           ;C:/Users/GNKRISHNAN/MPLABXProjects/MINI_PROJECT.X/final.c: 46:     Lcd_Set_Cursor(1,1);
   685     05BE  01F4               	clrf	Lcd_Set_Cursor@b
   686     05BF  0AF4               	incf	Lcd_Set_Cursor@b,f
   687     05C0  3001               	movlw	1
   688     05C1  120A  118A  238F  120A  118A  	fcall	_Lcd_Set_Cursor
   689     05C6                     l1491:
   690                           
   691                           ;C:/Users/GNKRISHNAN/MPLABXProjects/MINI_PROJECT.X/final.c: 47:     Lcd_Print_String("Ga
      +                          s Level:");
   692     05C6  3033               	movlw	(low ((STR_1-__stringbase)| (0+32768)))& (0+255)
   693     05C7  00F9               	movwf	Lcd_Print_String@a
   694     05C8  3080               	movlw	128
   695     05C9  00FA               	movwf	Lcd_Print_String@a+1
   696     05CA  120A  118A  2349  120A  118A  	fcall	_Lcd_Print_String
   697     05CF                     l1493:
   698                           
   699                           ;C:/Users/GNKRISHNAN/MPLABXProjects/MINI_PROJECT.X/final.c: 50:         gas_value = read
      +                          _adc(0);
   700     05CF  3000               	movlw	0
   701     05D0  120A  118A  2536  120A  118A  	fcall	_read_adc
   702     05D5  1283               	bcf	3,5	;RP0=0, select bank0
   703     05D6  1303               	bcf	3,6	;RP1=0, select bank0
   704     05D7  0821               	movf	?_read_adc+1,w
   705     05D8  00B0               	movwf	main@gas_value+1
   706     05D9  0820               	movf	?_read_adc,w
   707     05DA  00AF               	movwf	main@gas_value
   708     05DB                     l1495:
   709                           
   710                           ;C:/Users/GNKRISHNAN/MPLABXProjects/MINI_PROJECT.X/final.c: 51:         check_gas_level(
      +                          gas_value);
   711     05DB  0830               	movf	main@gas_value+1,w
   712     05DC  00A6               	movwf	check_gas_level@gas_value+1
   713     05DD  082F               	movf	main@gas_value,w
   714     05DE  00A5               	movwf	check_gas_level@gas_value
   715     05DF  120A  118A  2626  120A  118A  	fcall	_check_gas_level
   716     05E4                     l1497:
   717                           
   718                           ;C:/Users/GNKRISHNAN/MPLABXProjects/MINI_PROJECT.X/final.c: 53:         unsigned int LPG
      +                          _ppm = calculate_lpg_ppm(gas_value);
   719     05E4  1283               	bcf	3,5	;RP0=0, select bank0
   720     05E5  1303               	bcf	3,6	;RP1=0, select bank0
   721     05E6  0830               	movf	main@gas_value+1,w
   722     05E7  00A1               	movwf	calculate_lpg_ppm@adc_value+1
   723     05E8  082F               	movf	main@gas_value,w
   724     05E9  00A0               	movwf	calculate_lpg_ppm@adc_value
   725     05EA  120A  118A  26B4  120A  118A  	fcall	_calculate_lpg_ppm
   726     05EF  1283               	bcf	3,5	;RP0=0, select bank0
   727     05F0  1303               	bcf	3,6	;RP1=0, select bank0
   728     05F1  0821               	movf	?_calculate_lpg_ppm+1,w
   729     05F2  00AE               	movwf	main@LPG_ppm+1
   730     05F3  0820               	movf	?_calculate_lpg_ppm,w
   731     05F4  00AD               	movwf	main@LPG_ppm
   732     05F5                     l1499:
   733                           
   734                           ;C:/Users/GNKRISHNAN/MPLABXProjects/MINI_PROJECT.X/final.c: 54:         Lcd_Set_Cursor(1
      +                          ,11);
   735     05F5  300B               	movlw	11
   736     05F6  00F4               	movwf	Lcd_Set_Cursor@b
   737     05F7  3001               	movlw	1
   738     05F8  120A  118A  238F  120A  118A  	fcall	_Lcd_Set_Cursor
   739     05FD                     l1501:
   740                           
   741                           ;C:/Users/GNKRISHNAN/MPLABXProjects/MINI_PROJECT.X/final.c: 55:         Lcd_Print_String
      +                          ("    ");
   742     05FD  3020               	movlw	(low (((STR_4+11)-__stringbase)| (0+32768)))& (0+255)
   743     05FE  00F9               	movwf	Lcd_Print_String@a
   744     05FF  3080               	movlw	128
   745     0600  00FA               	movwf	Lcd_Print_String@a+1
   746     0601  120A  118A  2349  120A  118A  	fcall	_Lcd_Print_String
   747     0606                     l1503:
   748                           
   749                           ;C:/Users/GNKRISHNAN/MPLABXProjects/MINI_PROJECT.X/final.c: 56:         Lcd_Set_Cursor(1
      +                          ,11);
   750     0606  300B               	movlw	11
   751     0607  00F4               	movwf	Lcd_Set_Cursor@b
   752     0608  3001               	movlw	1
   753     0609  120A  118A  238F  120A  118A  	fcall	_Lcd_Set_Cursor
   754     060E                     l1505:
   755                           
   756                           ;C:/Users/GNKRISHNAN/MPLABXProjects/MINI_PROJECT.X/final.c: 57:         Lcd_Print_Number
      +                          (LPG_ppm);
   757     060E  1283               	bcf	3,5	;RP0=0, select bank0
   758     060F  1303               	bcf	3,6	;RP1=0, select bank0
   759     0610  082E               	movf	main@LPG_ppm+1,w
   760     0611  00A3               	movwf	Lcd_Print_Number@num+1
   761     0612  082D               	movf	main@LPG_ppm,w
   762     0613  00A2               	movwf	Lcd_Print_Number@num
   763     0614  120A  118A  23D7  120A  118A  	fcall	_Lcd_Print_Number
   764     0619                     l1507:
   765                           
   766                           ;C:/Users/GNKRISHNAN/MPLABXProjects/MINI_PROJECT.X/final.c: 59:         delay_ms(1000);
   767     0619  30E8               	movlw	232
   768     061A  00F0               	movwf	delay_ms@ms
   769     061B  3003               	movlw	3
   770     061C  00F1               	movwf	delay_ms@ms+1
   771     061D  120A  118A  2220  120A  118A  	fcall	_delay_ms
   772     0622  2DCF               	goto	l1493
   773     0623  120A  118A  2800   	ljmp	start
   774     0626                     __end_of_main:
   775                           
   776                           	psect	text1
   777     0536                     __ptext1:	
   778 ;; *************** function _read_adc *****************
   779 ;; Defined at:
   780 ;;		line 87 in file "C:/Users/GNKRISHNAN/MPLABXProjects/MINI_PROJECT.X/final.c"
   781 ;; Parameters:    Size  Location     Type
   782 ;;  channel         1    wreg     unsigned char 
   783 ;; Auto vars:     Size  Location     Type
   784 ;;  channel         1    6[BANK0 ] unsigned char 
   785 ;;  i               2   11[BANK0 ] int 
   786 ;;  sum             4    7[BANK0 ] unsigned long 
   787 ;; Return value:  Size  Location     Type
   788 ;;                  2    0[BANK0 ] unsigned int 
   789 ;; Registers used:
   790 ;;		wreg, status,2, status,0, btemp+1, pclath, cstack
   791 ;; Tracked objects:
   792 ;;		On entry : 0/0
   793 ;;		On exit  : 0/0
   794 ;;		Unchanged: 0/0
   795 ;; Data sizes:     COMMON   BANK0   BANK1   BANK3   BANK2
   796 ;;      Params:         0       2       0       0       0
   797 ;;      Locals:         0       7       0       0       0
   798 ;;      Temps:          0       4       0       0       0
   799 ;;      Totals:         0      13       0       0       0
   800 ;;Total ram usage:       13 bytes
   801 ;; Hardware stack levels used: 1
   802 ;; Hardware stack levels required when called: 1
   803 ;; This function calls:
   804 ;;		___lldiv
   805 ;; This function is called by:
   806 ;;		_main
   807 ;; This function uses a non-reentrant model
   808 ;;
   809                           
   810     0536                     _read_adc:	
   811                           ;psect for function _read_adc
   812                           
   813                           
   814                           ;incstack = 0
   815                           ; Regs used in _read_adc: [wreg+status,2+status,0+btemp+1+pclath+cstack]
   816                           ;read_adc@channel stored from wreg
   817     0536  1283               	bcf	3,5	;RP0=0, select bank0
   818     0537  1303               	bcf	3,6	;RP1=0, select bank0
   819     0538  00A6               	movwf	read_adc@channel
   820     0539                     l1337:
   821                           
   822                           ;C:/Users/GNKRISHNAN/MPLABXProjects/MINI_PROJECT.X/final.c: 88:     unsigned long sum = 
      +                          0;
   823     0539  3000               	movlw	0
   824     053A  00AA               	movwf	read_adc@sum+3
   825     053B  3000               	movlw	0
   826     053C  00A9               	movwf	read_adc@sum+2
   827     053D  3000               	movlw	0
   828     053E  00A8               	movwf	read_adc@sum+1
   829     053F  3000               	movlw	0
   830     0540  00A7               	movwf	read_adc@sum
   831     0541                     l1339:
   832                           
   833                           ;C:/Users/GNKRISHNAN/MPLABXProjects/MINI_PROJECT.X/final.c: 89:     for (int i = 0; i < 
      +                          10; i++) {
   834     0541  01AB               	clrf	read_adc@i
   835     0542  01AC               	clrf	read_adc@i+1
   836     0543                     l1345:
   837                           
   838                           ;C:/Users/GNKRISHNAN/MPLABXProjects/MINI_PROJECT.X/final.c: 90:         ADCON0 = (channe
      +                          l << 3) | 0x41;
   839     0543  1283               	bcf	3,5	;RP0=0, select bank0
   840     0544  1303               	bcf	3,6	;RP1=0, select bank0
   841     0545  0826               	movf	read_adc@channel,w
   842     0546  00A2               	movwf	??_read_adc
   843     0547  3002               	movlw	2
   844     0548                     u965:
   845     0548  1003               	clrc
   846     0549  0DA2               	rlf	??_read_adc,f
   847     054A  3EFF               	addlw	-1
   848     054B  1D03               	skipz
   849     054C  2D48               	goto	u965
   850     054D  1003               	clrc
   851     054E  0D22               	rlf	??_read_adc,w
   852     054F  3841               	iorlw	65
   853     0550  009F               	movwf	31	;volatile
   854     0551                     l1347:
   855                           
   856                           ;C:/Users/GNKRISHNAN/MPLABXProjects/MINI_PROJECT.X/final.c: 91:         ADCON0 |= 0x04;
   857     0551  151F               	bsf	31,2	;volatile
   858     0552                     l124:	
   859                           ;C:/Users/GNKRISHNAN/MPLABXProjects/MINI_PROJECT.X/final.c: 92:         while (ADCON0 & 
      +                          0x04);
   860                           
   861     0552  191F               	btfsc	31,2	;volatile
   862     0553  2D55               	goto	u971
   863     0554  2D56               	goto	u970
   864     0555                     u971:
   865     0555  2D52               	goto	l124
   866     0556                     u970:
   867     0556                     l1349:
   868                           
   869                           ;C:/Users/GNKRISHNAN/MPLABXProjects/MINI_PROJECT.X/final.c: 93:         sum += ((ADRESH 
      +                          << 8) | ADRESL);
   870     0556  1683               	bsf	3,5	;RP0=1, select bank1
   871     0557  1303               	bcf	3,6	;RP1=0, select bank1
   872     0558  081E               	movf	30,w	;volatile
   873     0559  1283               	bcf	3,5	;RP0=0, select bank0
   874     055A  1303               	bcf	3,6	;RP1=0, select bank0
   875     055B  00A2               	movwf	??_read_adc
   876     055C  081E               	movf	30,w	;volatile
   877     055D  00A3               	movwf	??_read_adc+1
   878     055E  3000               	movlw	0
   879     055F  1BA3               	btfsc	??_read_adc+1,7
   880     0560  30FF               	movlw	255
   881     0561  00A4               	movwf	??_read_adc+2
   882     0562  00A5               	movwf	??_read_adc+3
   883     0563  0822               	movf	??_read_adc,w
   884     0564  07A7               	addwf	read_adc@sum,f
   885     0565  0823               	movf	??_read_adc+1,w
   886     0566  1103               	clrz
   887     0567  1803               	skipnc
   888     0568  3E01               	addlw	1
   889     0569  1903               	skipnz
   890     056A  2D6C               	goto	u981
   891     056B  07A8               	addwf	read_adc@sum+1,f
   892     056C                     u981:
   893     056C  0824               	movf	??_read_adc+2,w
   894     056D  1103               	clrz
   895     056E  1803               	skipnc
   896     056F  3E01               	addlw	1
   897     0570  1903               	skipnz
   898     0571  2D73               	goto	u982
   899     0572  07A9               	addwf	read_adc@sum+2,f
   900     0573                     u982:
   901     0573  0825               	movf	??_read_adc+3,w
   902     0574  1103               	clrz
   903     0575  1803               	skipnc
   904     0576  3E01               	addlw	1
   905     0577  1903               	skipnz
   906     0578  2D7A               	goto	u983
   907     0579  07AA               	addwf	read_adc@sum+3,f
   908     057A                     u983:
   909                           
   910                           ;C:/Users/GNKRISHNAN/MPLABXProjects/MINI_PROJECT.X/final.c: 94:     }
   911     057A  3001               	movlw	1
   912     057B  07AB               	addwf	read_adc@i,f
   913     057C  1803               	skipnc
   914     057D  0AAC               	incf	read_adc@i+1,f
   915     057E  3000               	movlw	0
   916     057F  07AC               	addwf	read_adc@i+1,f
   917     0580                     l1351:
   918     0580  082C               	movf	read_adc@i+1,w
   919     0581  3A80               	xorlw	128
   920     0582  00FF               	movwf	btemp+1
   921     0583  3080               	movlw	128
   922     0584  027F               	subwf	btemp+1,w
   923     0585  1D03               	skipz
   924     0586  2D89               	goto	u995
   925     0587  300A               	movlw	10
   926     0588  022B               	subwf	read_adc@i,w
   927     0589                     u995:
   928     0589  1C03               	skipc
   929     058A  2D8C               	goto	u991
   930     058B  2D8D               	goto	u990
   931     058C                     u991:
   932     058C  2D43               	goto	l1345
   933     058D                     u990:
   934     058D                     l1353:
   935                           
   936                           ;C:/Users/GNKRISHNAN/MPLABXProjects/MINI_PROJECT.X/final.c: 95:     return (unsigned int
      +                          )(sum / 10);
   937     058D  3000               	movlw	0
   938     058E  00F3               	movwf	___lldiv@divisor+3
   939     058F  3000               	movlw	0
   940     0590  00F2               	movwf	___lldiv@divisor+2
   941     0591  3000               	movlw	0
   942     0592  00F1               	movwf	___lldiv@divisor+1
   943     0593  300A               	movlw	10
   944     0594  00F0               	movwf	___lldiv@divisor
   945     0595  1283               	bcf	3,5	;RP0=0, select bank0
   946     0596  1303               	bcf	3,6	;RP1=0, select bank0
   947     0597  082A               	movf	read_adc@sum+3,w
   948     0598  00F7               	movwf	___lldiv@dividend+3
   949     0599  0829               	movf	read_adc@sum+2,w
   950     059A  00F6               	movwf	___lldiv@dividend+2
   951     059B  0828               	movf	read_adc@sum+1,w
   952     059C  00F5               	movwf	___lldiv@dividend+1
   953     059D  0827               	movf	read_adc@sum,w
   954     059E  00F4               	movwf	___lldiv@dividend
   955     059F  120A  118A  24D2  120A  118A  	fcall	___lldiv
   956     05A4  0871               	movf	?___lldiv+1,w
   957     05A5  1283               	bcf	3,5	;RP0=0, select bank0
   958     05A6  1303               	bcf	3,6	;RP1=0, select bank0
   959     05A7  00A1               	movwf	?_read_adc+1
   960     05A8  0870               	movf	?___lldiv,w
   961     05A9  00A0               	movwf	?_read_adc
   962     05AA                     l127:
   963     05AA  0008               	return
   964     05AB                     __end_of_read_adc:
   965                           
   966                           	psect	text2
   967     04D2                     __ptext2:	
   968 ;; *************** function ___lldiv *****************
   969 ;; Defined at:
   970 ;;		line 5 in file "C:\Program Files\Microchip\xc8\v2.50\pic\sources\c99\common\__lldiv.c"
   971 ;; Parameters:    Size  Location     Type
   972 ;;  divisor         4    0[COMMON] unsigned long 
   973 ;;  dividend        4    4[COMMON] unsigned long 
   974 ;; Auto vars:     Size  Location     Type
   975 ;;  quotient        4    9[COMMON] unsigned long 
   976 ;;  counter         1   13[COMMON] unsigned char 
   977 ;; Return value:  Size  Location     Type
   978 ;;                  4    0[COMMON] unsigned long 
   979 ;; Registers used:
   980 ;;		wreg, status,2, status,0
   981 ;; Tracked objects:
   982 ;;		On entry : 0/0
   983 ;;		On exit  : 0/0
   984 ;;		Unchanged: 0/0
   985 ;; Data sizes:     COMMON   BANK0   BANK1   BANK3   BANK2
   986 ;;      Params:         8       0       0       0       0
   987 ;;      Locals:         5       0       0       0       0
   988 ;;      Temps:          1       0       0       0       0
   989 ;;      Totals:        14       0       0       0       0
   990 ;;Total ram usage:       14 bytes
   991 ;; Hardware stack levels used: 1
   992 ;; This function calls:
   993 ;;		Nothing
   994 ;; This function is called by:
   995 ;;		_read_adc
   996 ;; This function uses a non-reentrant model
   997 ;;
   998                           
   999     04D2                     ___lldiv:	
  1000                           ;psect for function ___lldiv
  1001                           
  1002     04D2                     l1255:	
  1003                           ;incstack = 0
  1004                           ; Regs used in ___lldiv: [wreg+status,2+status,0]
  1005                           
  1006     04D2  3000               	movlw	0
  1007     04D3  00FC               	movwf	___lldiv@quotient+3
  1008     04D4  3000               	movlw	0
  1009     04D5  00FB               	movwf	___lldiv@quotient+2
  1010     04D6  3000               	movlw	0
  1011     04D7  00FA               	movwf	___lldiv@quotient+1
  1012     04D8  3000               	movlw	0
  1013     04D9  00F9               	movwf	___lldiv@quotient
  1014     04DA  0873               	movf	___lldiv@divisor+3,w
  1015     04DB  0472               	iorwf	___lldiv@divisor+2,w
  1016     04DC  0471               	iorwf	___lldiv@divisor+1,w
  1017     04DD  0470               	iorwf	___lldiv@divisor,w
  1018     04DE  1903               	skipnz
  1019     04DF  2CE1               	goto	u761
  1020     04E0  2CE2               	goto	u760
  1021     04E1                     u761:
  1022     04E1  2D2D               	goto	l1275
  1023     04E2                     u760:
  1024     04E2                     l1257:
  1025     04E2  3001               	movlw	1
  1026     04E3  00FD               	movwf	___lldiv@counter
  1027     04E4  2CF0               	goto	l1261
  1028     04E5                     l1259:
  1029     04E5  3001               	movlw	1
  1030     04E6  00F8               	movwf	??___lldiv
  1031     04E7                     u775:
  1032     04E7  1003               	clrc
  1033     04E8  0DF0               	rlf	___lldiv@divisor,f
  1034     04E9  0DF1               	rlf	___lldiv@divisor+1,f
  1035     04EA  0DF2               	rlf	___lldiv@divisor+2,f
  1036     04EB  0DF3               	rlf	___lldiv@divisor+3,f
  1037     04EC  0BF8               	decfsz	??___lldiv,f
  1038     04ED  2CE7               	goto	u775
  1039     04EE  3001               	movlw	1
  1040     04EF  07FD               	addwf	___lldiv@counter,f
  1041     04F0                     l1261:
  1042     04F0  1FF3               	btfss	___lldiv@divisor+3,7
  1043     04F1  2CF3               	goto	u781
  1044     04F2  2CF4               	goto	u780
  1045     04F3                     u781:
  1046     04F3  2CE5               	goto	l1259
  1047     04F4                     u780:
  1048     04F4                     l1263:
  1049     04F4  3001               	movlw	1
  1050     04F5  00F8               	movwf	??___lldiv
  1051     04F6                     u795:
  1052     04F6  1003               	clrc
  1053     04F7  0DF9               	rlf	___lldiv@quotient,f
  1054     04F8  0DFA               	rlf	___lldiv@quotient+1,f
  1055     04F9  0DFB               	rlf	___lldiv@quotient+2,f
  1056     04FA  0DFC               	rlf	___lldiv@quotient+3,f
  1057     04FB  0BF8               	decfsz	??___lldiv,f
  1058     04FC  2CF6               	goto	u795
  1059     04FD                     l1265:
  1060     04FD  0873               	movf	___lldiv@divisor+3,w
  1061     04FE  0277               	subwf	___lldiv@dividend+3,w
  1062     04FF  1D03               	skipz
  1063     0500  2D0B               	goto	u805
  1064     0501  0872               	movf	___lldiv@divisor+2,w
  1065     0502  0276               	subwf	___lldiv@dividend+2,w
  1066     0503  1D03               	skipz
  1067     0504  2D0B               	goto	u805
  1068     0505  0871               	movf	___lldiv@divisor+1,w
  1069     0506  0275               	subwf	___lldiv@dividend+1,w
  1070     0507  1D03               	skipz
  1071     0508  2D0B               	goto	u805
  1072     0509  0870               	movf	___lldiv@divisor,w
  1073     050A  0274               	subwf	___lldiv@dividend,w
  1074     050B                     u805:
  1075     050B  1C03               	skipc
  1076     050C  2D0E               	goto	u801
  1077     050D  2D0F               	goto	u800
  1078     050E                     u801:
  1079     050E  2D1E               	goto	l1271
  1080     050F                     u800:
  1081     050F                     l1267:
  1082     050F  0870               	movf	___lldiv@divisor,w
  1083     0510  02F4               	subwf	___lldiv@dividend,f
  1084     0511  0871               	movf	___lldiv@divisor+1,w
  1085     0512  1C03               	skipc
  1086     0513  0F71               	incfsz	___lldiv@divisor+1,w
  1087     0514  02F5               	subwf	___lldiv@dividend+1,f
  1088     0515  0872               	movf	___lldiv@divisor+2,w
  1089     0516  1C03               	skipc
  1090     0517  0F72               	incfsz	___lldiv@divisor+2,w
  1091     0518  02F6               	subwf	___lldiv@dividend+2,f
  1092     0519  0873               	movf	___lldiv@divisor+3,w
  1093     051A  1C03               	skipc
  1094     051B  0F73               	incfsz	___lldiv@divisor+3,w
  1095     051C  02F7               	subwf	___lldiv@dividend+3,f
  1096     051D                     l1269:
  1097     051D  1479               	bsf	___lldiv@quotient,0
  1098     051E                     l1271:
  1099     051E  3001               	movlw	1
  1100     051F                     u815:
  1101     051F  1003               	clrc
  1102     0520  0CF3               	rrf	___lldiv@divisor+3,f
  1103     0521  0CF2               	rrf	___lldiv@divisor+2,f
  1104     0522  0CF1               	rrf	___lldiv@divisor+1,f
  1105     0523  0CF0               	rrf	___lldiv@divisor,f
  1106     0524  3EFF               	addlw	-1
  1107     0525  1D03               	skipz
  1108     0526  2D1F               	goto	u815
  1109     0527                     l1273:
  1110     0527  3001               	movlw	1
  1111     0528  02FD               	subwf	___lldiv@counter,f
  1112     0529  1D03               	btfss	3,2
  1113     052A  2D2C               	goto	u821
  1114     052B  2D2D               	goto	u820
  1115     052C                     u821:
  1116     052C  2CF4               	goto	l1263
  1117     052D                     u820:
  1118     052D                     l1275:
  1119     052D  087C               	movf	___lldiv@quotient+3,w
  1120     052E  00F3               	movwf	?___lldiv+3
  1121     052F  087B               	movf	___lldiv@quotient+2,w
  1122     0530  00F2               	movwf	?___lldiv+2
  1123     0531  087A               	movf	___lldiv@quotient+1,w
  1124     0532  00F1               	movwf	?___lldiv+1
  1125     0533  0879               	movf	___lldiv@quotient,w
  1126     0534  00F0               	movwf	?___lldiv
  1127     0535                     l287:
  1128     0535  0008               	return
  1129     0536                     __end_of___lldiv:
  1130                           
  1131                           	psect	text3
  1132     01FD                     __ptext3:	
  1133 ;; *************** function _init_system *****************
  1134 ;; Defined at:
  1135 ;;		line 63 in file "C:/Users/GNKRISHNAN/MPLABXProjects/MINI_PROJECT.X/final.c"
  1136 ;; Parameters:    Size  Location     Type
  1137 ;;		None
  1138 ;; Auto vars:     Size  Location     Type
  1139 ;;		None
  1140 ;; Return value:  Size  Location     Type
  1141 ;;                  1    wreg      void 
  1142 ;; Registers used:
  1143 ;;		wreg, status,2, status,0, pclath, cstack
  1144 ;; Tracked objects:
  1145 ;;		On entry : 0/0
  1146 ;;		On exit  : 0/0
  1147 ;;		Unchanged: 0/0
  1148 ;; Data sizes:     COMMON   BANK0   BANK1   BANK3   BANK2
  1149 ;;      Params:         0       0       0       0       0
  1150 ;;      Locals:         0       0       0       0       0
  1151 ;;      Temps:          0       0       0       0       0
  1152 ;;      Totals:         0       0       0       0       0
  1153 ;;Total ram usage:        0 bytes
  1154 ;; Hardware stack levels used: 1
  1155 ;; Hardware stack levels required when called: 3
  1156 ;; This function calls:
  1157 ;;		_Lcd_Start
  1158 ;; This function is called by:
  1159 ;;		_main
  1160 ;; This function uses a non-reentrant model
  1161 ;;
  1162                           
  1163     01FD                     _init_system:	
  1164                           ;psect for function _init_system
  1165                           
  1166     01FD                     l1329:	
  1167                           ;incstack = 0
  1168                           ; Regs used in _init_system: [wreg+status,2+status,0+pclath+cstack]
  1169                           
  1170                           
  1171                           ;C:/Users/GNKRISHNAN/MPLABXProjects/MINI_PROJECT.X/final.c: 64:     TRISCbits.TRISC0 = 0
      +                          ;
  1172     01FD  1683               	bsf	3,5	;RP0=1, select bank1
  1173     01FE  1303               	bcf	3,6	;RP1=0, select bank1
  1174     01FF  1007               	bcf	7,0	;volatile
  1175                           
  1176                           ;C:/Users/GNKRISHNAN/MPLABXProjects/MINI_PROJECT.X/final.c: 65:     PORTCbits.RC0 = 0;
  1177     0200  1283               	bcf	3,5	;RP0=0, select bank0
  1178     0201  1303               	bcf	3,6	;RP1=0, select bank0
  1179     0202  1007               	bcf	7,0	;volatile
  1180                           
  1181                           ;C:/Users/GNKRISHNAN/MPLABXProjects/MINI_PROJECT.X/final.c: 66:     ADCON1 = 0x06;
  1182     0203  3006               	movlw	6
  1183     0204  1683               	bsf	3,5	;RP0=1, select bank1
  1184     0205  1303               	bcf	3,6	;RP1=0, select bank1
  1185     0206  009F               	movwf	31	;volatile
  1186     0207                     l1331:
  1187                           
  1188                           ;C:/Users/GNKRISHNAN/MPLABXProjects/MINI_PROJECT.X/final.c: 67:     Lcd_Start();
  1189     0207  120A  118A  2420  120A  118A  	fcall	_Lcd_Start
  1190     020C                     l112:
  1191     020C  0008               	return
  1192     020D                     __end_of_init_system:
  1193                           
  1194                           	psect	text4
  1195     0420                     __ptext4:	
  1196 ;; *************** function _Lcd_Start *****************
  1197 ;; Defined at:
  1198 ;;		line 98 in file "C:\Users\GNKRISHNAN\Documents\CODING\23EEE214_MCA\HEADERS\lcd.h"
  1199 ;; Parameters:    Size  Location     Type
  1200 ;;		None
  1201 ;; Auto vars:     Size  Location     Type
  1202 ;;  i               2    0        int 
  1203 ;; Return value:  Size  Location     Type
  1204 ;;                  1    wreg      void 
  1205 ;; Registers used:
  1206 ;;		wreg, status,2, status,0, pclath, cstack
  1207 ;; Tracked objects:
  1208 ;;		On entry : 0/0
  1209 ;;		On exit  : 0/0
  1210 ;;		Unchanged: 0/0
  1211 ;; Data sizes:     COMMON   BANK0   BANK1   BANK3   BANK2
  1212 ;;      Params:         0       0       0       0       0
  1213 ;;      Locals:         0       0       0       0       0
  1214 ;;      Temps:          2       0       0       0       0
  1215 ;;      Totals:         2       0       0       0       0
  1216 ;;Total ram usage:        2 bytes
  1217 ;; Hardware stack levels used: 1
  1218 ;; Hardware stack levels required when called: 2
  1219 ;; This function calls:
  1220 ;;		_Lcd_Cmd
  1221 ;;		_Lcd_SetBit
  1222 ;; This function is called by:
  1223 ;;		_init_system
  1224 ;; This function uses a non-reentrant model
  1225 ;;
  1226                           
  1227     0420                     _Lcd_Start:	
  1228                           ;psect for function _Lcd_Start
  1229                           
  1230     0420                     l1189:	
  1231                           ;incstack = 0
  1232                           ; Regs used in _Lcd_Start: [wreg+status,2+status,0+pclath+cstack]
  1233                           
  1234     0420  3000               	movlw	0
  1235     0421  120A  118A  2252  120A  118A  	fcall	_Lcd_SetBit
  1236     0426                     l1191:
  1237     0426                     l1193:
  1238     0426                     l1201:
  1239     0426  3003               	movlw	3
  1240     0427  120A  118A  2238  120A  118A  	fcall	_Lcd_Cmd
  1241     042C                     l1203:
  1242     042C  3021               	movlw	33
  1243     042D  00F5               	movwf	??_Lcd_Start+1
  1244     042E  3076               	movlw	118
  1245     042F  00F4               	movwf	??_Lcd_Start
  1246     0430                     u1137:
  1247     0430  0BF4               	decfsz	??_Lcd_Start,f
  1248     0431  2C30               	goto	u1137
  1249     0432  0BF5               	decfsz	??_Lcd_Start+1,f
  1250     0433  2C30               	goto	u1137
  1251     0434  0000               	nop
  1252     0435                     l1205:
  1253     0435  3003               	movlw	3
  1254     0436  120A  118A  2238  120A  118A  	fcall	_Lcd_Cmd
  1255     043B  3048               	movlw	72
  1256     043C  00F5               	movwf	??_Lcd_Start+1
  1257     043D  306C               	movlw	108
  1258     043E  00F4               	movwf	??_Lcd_Start
  1259     043F                     u1147:
  1260     043F  0BF4               	decfsz	??_Lcd_Start,f
  1261     0440  2C3F               	goto	u1147
  1262     0441  0BF5               	decfsz	??_Lcd_Start+1,f
  1263     0442  2C3F               	goto	u1147
  1264     0443  0000               	nop
  1265     0444                     l1207:
  1266     0444  3003               	movlw	3
  1267     0445  120A  118A  2238  120A  118A  	fcall	_Lcd_Cmd
  1268     044A                     l1209:
  1269     044A  3002               	movlw	2
  1270     044B  120A  118A  2238  120A  118A  	fcall	_Lcd_Cmd
  1271     0450                     l1211:
  1272     0450  3002               	movlw	2
  1273     0451  120A  118A  2238  120A  118A  	fcall	_Lcd_Cmd
  1274     0456                     l1213:
  1275     0456  3008               	movlw	8
  1276     0457  120A  118A  2238  120A  118A  	fcall	_Lcd_Cmd
  1277     045C                     l1215:
  1278     045C  3000               	movlw	0
  1279     045D  120A  118A  2238  120A  118A  	fcall	_Lcd_Cmd
  1280     0462                     l1217:
  1281     0462  300C               	movlw	12
  1282     0463  120A  118A  2238  120A  118A  	fcall	_Lcd_Cmd
  1283     0468                     l1219:
  1284     0468  3000               	movlw	0
  1285     0469  120A  118A  2238  120A  118A  	fcall	_Lcd_Cmd
  1286     046E                     l1221:
  1287     046E  3006               	movlw	6
  1288     046F  120A  118A  2238  120A  118A  	fcall	_Lcd_Cmd
  1289     0474                     l84:
  1290     0474  0008               	return
  1291     0475                     __end_of_Lcd_Start:
  1292                           
  1293                           	psect	text5
  1294     020D                     __ptext5:	
  1295 ;; *************** function _init_pwm *****************
  1296 ;; Defined at:
  1297 ;;		line 70 in file "C:/Users/GNKRISHNAN/MPLABXProjects/MINI_PROJECT.X/final.c"
  1298 ;; Parameters:    Size  Location     Type
  1299 ;;		None
  1300 ;; Auto vars:     Size  Location     Type
  1301 ;;		None
  1302 ;; Return value:  Size  Location     Type
  1303 ;;                  1    wreg      void 
  1304 ;; Registers used:
  1305 ;;		wreg, status,2, status,0, pclath, cstack
  1306 ;; Tracked objects:
  1307 ;;		On entry : 0/0
  1308 ;;		On exit  : 0/0
  1309 ;;		Unchanged: 0/0
  1310 ;; Data sizes:     COMMON   BANK0   BANK1   BANK3   BANK2
  1311 ;;      Params:         0       0       0       0       0
  1312 ;;      Locals:         0       0       0       0       0
  1313 ;;      Temps:          0       0       0       0       0
  1314 ;;      Totals:         0       0       0       0       0
  1315 ;;Total ram usage:        0 bytes
  1316 ;; Hardware stack levels used: 1
  1317 ;; Hardware stack levels required when called: 1
  1318 ;; This function calls:
  1319 ;;		_pwm_set_duty
  1320 ;; This function is called by:
  1321 ;;		_main
  1322 ;; This function uses a non-reentrant model
  1323 ;;
  1324                           
  1325     020D                     _init_pwm:	
  1326                           ;psect for function _init_pwm
  1327                           
  1328     020D                     l1333:	
  1329                           ;incstack = 0
  1330                           ; Regs used in _init_pwm: [wreg+status,2+status,0+pclath+cstack]
  1331                           
  1332                           
  1333                           ;C:/Users/GNKRISHNAN/MPLABXProjects/MINI_PROJECT.X/final.c: 71:     PR2 = 249;
  1334     020D  30F9               	movlw	249
  1335     020E  1683               	bsf	3,5	;RP0=1, select bank1
  1336     020F  1303               	bcf	3,6	;RP1=0, select bank1
  1337     0210  0092               	movwf	18	;volatile
  1338                           
  1339                           ;C:/Users/GNKRISHNAN/MPLABXProjects/MINI_PROJECT.X/final.c: 72:     CCP1CON = 0x0C;
  1340     0211  300C               	movlw	12
  1341     0212  1283               	bcf	3,5	;RP0=0, select bank0
  1342     0213  1303               	bcf	3,6	;RP1=0, select bank0
  1343     0214  0097               	movwf	23	;volatile
  1344                           
  1345                           ;C:/Users/GNKRISHNAN/MPLABXProjects/MINI_PROJECT.X/final.c: 73:     T2CON = 0x04;
  1346     0215  3004               	movlw	4
  1347     0216  0092               	movwf	18	;volatile
  1348     0217                     l1335:
  1349                           
  1350                           ;C:/Users/GNKRISHNAN/MPLABXProjects/MINI_PROJECT.X/final.c: 74:     pwm_set_duty(0);
  1351     0217  3000               	movlw	0
  1352     0218  00A0               	movwf	pwm_set_duty@duty
  1353     0219  00A1               	movwf	pwm_set_duty@duty+1
  1354     021A  120A  118A  2299  120A  118A  	fcall	_pwm_set_duty
  1355     021F                     l115:
  1356     021F  0008               	return
  1357     0220                     __end_of_init_pwm:
  1358                           
  1359                           	psect	text6
  1360     0220                     __ptext6:	
  1361 ;; *************** function _delay_ms *****************
  1362 ;; Defined at:
  1363 ;;		line 135 in file "C:/Users/GNKRISHNAN/MPLABXProjects/MINI_PROJECT.X/final.c"
  1364 ;; Parameters:    Size  Location     Type
  1365 ;;  ms              2    0[COMMON] unsigned int 
  1366 ;; Auto vars:     Size  Location     Type
  1367 ;;		None
  1368 ;; Return value:  Size  Location     Type
  1369 ;;                  1    wreg      void 
  1370 ;; Registers used:
  1371 ;;		wreg, status,2, status,0
  1372 ;; Tracked objects:
  1373 ;;		On entry : 0/0
  1374 ;;		On exit  : 0/0
  1375 ;;		Unchanged: 0/0
  1376 ;; Data sizes:     COMMON   BANK0   BANK1   BANK3   BANK2
  1377 ;;      Params:         2       0       0       0       0
  1378 ;;      Locals:         0       0       0       0       0
  1379 ;;      Temps:          2       0       0       0       0
  1380 ;;      Totals:         4       0       0       0       0
  1381 ;;Total ram usage:        4 bytes
  1382 ;; Hardware stack levels used: 1
  1383 ;; This function calls:
  1384 ;;		Nothing
  1385 ;; This function is called by:
  1386 ;;		_main
  1387 ;; This function uses a non-reentrant model
  1388 ;;
  1389                           
  1390     0220                     _delay_ms:	
  1391                           ;psect for function _delay_ms
  1392                           
  1393     0220                     l1473:	
  1394                           ;incstack = 0
  1395                           ; Regs used in _delay_ms: [wreg+status,2+status,0]
  1396                           
  1397                           
  1398                           ;C:/Users/GNKRISHNAN/MPLABXProjects/MINI_PROJECT.X/final.c: 136:     while(ms--) _delay(
      +                          (unsigned long)((1)*(20000000/4000.0)));
  1399     0220  2A29               	goto	l1477
  1400     0221                     l1475:
  1401     0221  3007               	movlw	7
  1402     0222  00F3               	movwf	??_delay_ms+1
  1403     0223  307D               	movlw	125
  1404     0224  00F2               	movwf	??_delay_ms
  1405     0225                     u1157:
  1406     0225  0BF2               	decfsz	??_delay_ms,f
  1407     0226  2A25               	goto	u1157
  1408     0227  0BF3               	decfsz	??_delay_ms+1,f
  1409     0228  2A25               	goto	u1157
  1410     0229                     l1477:
  1411     0229  3001               	movlw	1
  1412     022A  02F0               	subwf	delay_ms@ms,f
  1413     022B  3000               	movlw	0
  1414     022C  1C03               	skipc
  1415     022D  03F1               	decf	delay_ms@ms+1,f
  1416     022E  02F1               	subwf	delay_ms@ms+1,f
  1417     022F  0A70               	incf	delay_ms@ms,w
  1418     0230  1D03               	skipz
  1419     0231  2A36               	goto	u1121
  1420     0232  0A71               	incf	delay_ms@ms+1,w
  1421     0233  1D03               	btfss	3,2
  1422     0234  2A36               	goto	u1121
  1423     0235  2A37               	goto	u1120
  1424     0236                     u1121:
  1425     0236  2A21               	goto	l1475
  1426     0237                     u1120:
  1427     0237                     l160:
  1428     0237  0008               	return
  1429     0238                     __end_of_delay_ms:
  1430                           
  1431                           	psect	text7
  1432     0626                     __ptext7:	
  1433 ;; *************** function _check_gas_level *****************
  1434 ;; Defined at:
  1435 ;;		line 114 in file "C:/Users/GNKRISHNAN/MPLABXProjects/MINI_PROJECT.X/final.c"
  1436 ;; Parameters:    Size  Location     Type
  1437 ;;  gas_value       2    5[BANK0 ] unsigned int 
  1438 ;; Auto vars:     Size  Location     Type
  1439 ;;		None
  1440 ;; Return value:  Size  Location     Type
  1441 ;;                  1    wreg      void 
  1442 ;; Registers used:
  1443 ;;		wreg, fsr0l, fsr0h, status,2, status,0, btemp+1, pclath, cstack
  1444 ;; Tracked objects:
  1445 ;;		On entry : 0/0
  1446 ;;		On exit  : 0/0
  1447 ;;		Unchanged: 0/0
  1448 ;; Data sizes:     COMMON   BANK0   BANK1   BANK3   BANK2
  1449 ;;      Params:         0       2       0       0       0
  1450 ;;      Locals:         0       0       0       0       0
  1451 ;;      Temps:          0       3       0       0       0
  1452 ;;      Totals:         0       5       0       0       0
  1453 ;;Total ram usage:        5 bytes
  1454 ;; Hardware stack levels used: 1
  1455 ;; Hardware stack levels required when called: 3
  1456 ;; This function calls:
  1457 ;;		_Lcd_Print_String
  1458 ;;		_Lcd_Set_Cursor
  1459 ;;		___lwdiv
  1460 ;;		___wmul
  1461 ;;		_pwm_set_duty
  1462 ;; This function is called by:
  1463 ;;		_main
  1464 ;; This function uses a non-reentrant model
  1465 ;;
  1466                           
  1467     0626                     _check_gas_level:	
  1468                           ;psect for function _check_gas_level
  1469                           
  1470     0626                     l1357:	
  1471                           ;incstack = 0
  1472                           ; Regs used in _check_gas_level: [wreg-fsr0h+status,2+status,0+btemp+1+pclath+cstack]
  1473                           
  1474                           
  1475                           ;C:/Users/GNKRISHNAN/MPLABXProjects/MINI_PROJECT.X/final.c: 115:     if (gas_value > 200
      +                          ) {
  1476     0626  3000               	movlw	0
  1477     0627  1283               	bcf	3,5	;RP0=0, select bank0
  1478     0628  1303               	bcf	3,6	;RP1=0, select bank0
  1479     0629  0226               	subwf	check_gas_level@gas_value+1,w
  1480     062A  30C9               	movlw	201
  1481     062B  1903               	skipnz
  1482     062C  0225               	subwf	check_gas_level@gas_value,w
  1483     062D  1C03               	skipc
  1484     062E  2E30               	goto	u1001
  1485     062F  2E31               	goto	u1000
  1486     0630                     u1001:
  1487     0630  2E97               	goto	l151
  1488     0631                     u1000:
  1489     0631                     l1359:
  1490                           
  1491                           ;C:/Users/GNKRISHNAN/MPLABXProjects/MINI_PROJECT.X/final.c: 116:         PORTCbits.RC0 =
      +                           1;
  1492     0631  1407               	bsf	7,0	;volatile
  1493     0632                     l1361:
  1494                           
  1495                           ;C:/Users/GNKRISHNAN/MPLABXProjects/MINI_PROJECT.X/final.c: 117:         gas_alert_count
      +                          er++;
  1496     0632  3001               	movlw	1
  1497     0633  07B1               	addwf	_gas_alert_counter,f
  1498     0634  1803               	skipnc
  1499     0635  0AB2               	incf	_gas_alert_counter+1,f
  1500     0636  3000               	movlw	0
  1501     0637  07B2               	addwf	_gas_alert_counter+1,f
  1502                           
  1503                           ;C:/Users/GNKRISHNAN/MPLABXProjects/MINI_PROJECT.X/final.c: 118:         if (gas_alert_c
      +                          ounter >= 5) {
  1504     0638  3000               	movlw	0
  1505     0639  0232               	subwf	_gas_alert_counter+1,w
  1506     063A  3005               	movlw	5
  1507     063B  1903               	skipnz
  1508     063C  0231               	subwf	_gas_alert_counter,w
  1509     063D  1C03               	skipc
  1510     063E  2E40               	goto	u1011
  1511     063F  2E41               	goto	u1010
  1512     0640                     u1011:
  1513     0640  2E66               	goto	l1365
  1514     0641                     u1010:
  1515     0641                     l1363:
  1516                           
  1517                           ;C:/Users/GNKRISHNAN/MPLABXProjects/MINI_PROJECT.X/final.c: 119:             pwm_set_dut
      +                          y((gas_value * 1023) / 1023);
  1518     0641  30FF               	movlw	255
  1519     0642  00F6               	movwf	___lwdiv@divisor
  1520     0643  3003               	movlw	3
  1521     0644  00F7               	movwf	___lwdiv@divisor+1
  1522     0645  0826               	movf	check_gas_level@gas_value+1,w
  1523     0646  00F1               	movwf	___wmul@multiplier+1
  1524     0647  0825               	movf	check_gas_level@gas_value,w
  1525     0648  00F0               	movwf	___wmul@multiplier
  1526     0649  30FF               	movlw	255
  1527     064A  00F2               	movwf	___wmul@multiplicand
  1528     064B  3003               	movlw	3
  1529     064C  00F3               	movwf	___wmul@multiplicand+1
  1530     064D  120A  118A  2274  120A  118A  	fcall	___wmul
  1531     0652  0871               	movf	?___wmul+1,w
  1532     0653  00F9               	movwf	___lwdiv@dividend+1
  1533     0654  0870               	movf	?___wmul,w
  1534     0655  00F8               	movwf	___lwdiv@dividend
  1535     0656  120A  118A  2307  120A  118A  	fcall	___lwdiv
  1536     065B  0877               	movf	?___lwdiv+1,w
  1537     065C  1283               	bcf	3,5	;RP0=0, select bank0
  1538     065D  1303               	bcf	3,6	;RP1=0, select bank0
  1539     065E  00A1               	movwf	pwm_set_duty@duty+1
  1540     065F  0876               	movf	?___lwdiv,w
  1541     0660  00A0               	movwf	pwm_set_duty@duty
  1542     0661  120A  118A  2299  120A  118A  	fcall	_pwm_set_duty
  1543     0666                     l1365:
  1544                           
  1545                           ;C:/Users/GNKRISHNAN/MPLABXProjects/MINI_PROJECT.X/final.c: 121:         _delay((unsigne
      +                          d long)((200)*(20000000/4000.0)));
  1546     0666  3006               	movlw	6
  1547     0667  1283               	bcf	3,5	;RP0=0, select bank0
  1548     0668  1303               	bcf	3,6	;RP1=0, select bank0
  1549     0669  00A9               	movwf	??_check_gas_level+2
  1550     066A  3013               	movlw	19
  1551     066B  00A8               	movwf	??_check_gas_level+1
  1552     066C  30AD               	movlw	173
  1553     066D  00A7               	movwf	??_check_gas_level
  1554     066E                     u1167:
  1555     066E  0BA7               	decfsz	??_check_gas_level,f
  1556     066F  2E6E               	goto	u1167
  1557     0670  0BA8               	decfsz	??_check_gas_level+1,f
  1558     0671  2E6E               	goto	u1167
  1559     0672  0BA9               	decfsz	??_check_gas_level+2,f
  1560     0673  2E6E               	goto	u1167
  1561     0674                     l1367:
  1562                           
  1563                           ;C:/Users/GNKRISHNAN/MPLABXProjects/MINI_PROJECT.X/final.c: 122:         Lcd_Set_Cursor(
      +                          2,1);
  1564     0674  01F4               	clrf	Lcd_Set_Cursor@b
  1565     0675  0AF4               	incf	Lcd_Set_Cursor@b,f
  1566     0676  3002               	movlw	2
  1567     0677  120A  118A  238F  120A  118A  	fcall	_Lcd_Set_Cursor
  1568     067C                     l1369:
  1569                           
  1570                           ;C:/Users/GNKRISHNAN/MPLABXProjects/MINI_PROJECT.X/final.c: 123:         Lcd_Print_Strin
      +                          g("Gas Detected!");
  1571     067C  3025               	movlw	(low ((STR_3-__stringbase)| (0+32768)))& (0+255)
  1572     067D  00F9               	movwf	Lcd_Print_String@a
  1573     067E  3080               	movlw	128
  1574     067F  00FA               	movwf	Lcd_Print_String@a+1
  1575     0680  120A  118A  2349  120A  118A  	fcall	_Lcd_Print_String
  1576     0685                     l1371:
  1577                           
  1578                           ;C:/Users/GNKRISHNAN/MPLABXProjects/MINI_PROJECT.X/final.c: 124:         PORTCbits.RC0 =
      +                           0;
  1579     0685  1283               	bcf	3,5	;RP0=0, select bank0
  1580     0686  1303               	bcf	3,6	;RP1=0, select bank0
  1581     0687  1007               	bcf	7,0	;volatile
  1582     0688                     l1373:
  1583                           
  1584                           ;C:/Users/GNKRISHNAN/MPLABXProjects/MINI_PROJECT.X/final.c: 125:         _delay((unsigne
      +                          d long)((200)*(20000000/4000.0)));
  1585     0688  3006               	movlw	6
  1586     0689  1283               	bcf	3,5	;RP0=0, select bank0
  1587     068A  1303               	bcf	3,6	;RP1=0, select bank0
  1588     068B  00A9               	movwf	??_check_gas_level+2
  1589     068C  3013               	movlw	19
  1590     068D  00A8               	movwf	??_check_gas_level+1
  1591     068E  30AD               	movlw	173
  1592     068F  00A7               	movwf	??_check_gas_level
  1593     0690                     u1177:
  1594     0690  0BA7               	decfsz	??_check_gas_level,f
  1595     0691  2E90               	goto	u1177
  1596     0692  0BA8               	decfsz	??_check_gas_level+1,f
  1597     0693  2E90               	goto	u1177
  1598     0694  0BA9               	decfsz	??_check_gas_level+2,f
  1599     0695  2E90               	goto	u1177
  1600                           
  1601                           ;C:/Users/GNKRISHNAN/MPLABXProjects/MINI_PROJECT.X/final.c: 126:     } else {
  1602     0696  2EB3               	goto	l154
  1603     0697                     l151:
  1604                           
  1605                           ;C:/Users/GNKRISHNAN/MPLABXProjects/MINI_PROJECT.X/final.c: 127:         PORTCbits.RC0 =
      +                           0;
  1606     0697  1007               	bcf	7,0	;volatile
  1607     0698                     l1375:
  1608                           
  1609                           ;C:/Users/GNKRISHNAN/MPLABXProjects/MINI_PROJECT.X/final.c: 128:         gas_alert_count
      +                          er = 0;
  1610     0698  01B1               	clrf	_gas_alert_counter
  1611     0699  01B2               	clrf	_gas_alert_counter+1
  1612     069A                     l1377:
  1613                           
  1614                           ;C:/Users/GNKRISHNAN/MPLABXProjects/MINI_PROJECT.X/final.c: 129:         pwm_set_duty(0)
      +                          ;
  1615     069A  3000               	movlw	0
  1616     069B  00A0               	movwf	pwm_set_duty@duty
  1617     069C  00A1               	movwf	pwm_set_duty@duty+1
  1618     069D  120A  118A  2299  120A  118A  	fcall	_pwm_set_duty
  1619     06A2                     l1379:
  1620                           
  1621                           ;C:/Users/GNKRISHNAN/MPLABXProjects/MINI_PROJECT.X/final.c: 130:         Lcd_Set_Cursor(
      +                          2,1);
  1622     06A2  01F4               	clrf	Lcd_Set_Cursor@b
  1623     06A3  0AF4               	incf	Lcd_Set_Cursor@b,f
  1624     06A4  3002               	movlw	2
  1625     06A5  120A  118A  238F  120A  118A  	fcall	_Lcd_Set_Cursor
  1626     06AA                     l1381:
  1627                           
  1628                           ;C:/Users/GNKRISHNAN/MPLABXProjects/MINI_PROJECT.X/final.c: 131:         Lcd_Print_Strin
      +                          g("               ");
  1629     06AA  3015               	movlw	(low ((STR_4-__stringbase)| (0+32768)))& (0+255)
  1630     06AB  00F9               	movwf	Lcd_Print_String@a
  1631     06AC  3080               	movlw	128
  1632     06AD  00FA               	movwf	Lcd_Print_String@a+1
  1633     06AE  120A  118A  2349  120A  118A  	fcall	_Lcd_Print_String
  1634     06B3                     l154:
  1635     06B3  0008               	return
  1636     06B4                     __end_of_check_gas_level:
  1637                           
  1638                           	psect	text8
  1639     0299                     __ptext8:	
  1640 ;; *************** function _pwm_set_duty *****************
  1641 ;; Defined at:
  1642 ;;		line 77 in file "C:/Users/GNKRISHNAN/MPLABXProjects/MINI_PROJECT.X/final.c"
  1643 ;; Parameters:    Size  Location     Type
  1644 ;;  duty            2    0[BANK0 ] unsigned int 
  1645 ;; Auto vars:     Size  Location     Type
  1646 ;;		None
  1647 ;; Return value:  Size  Location     Type
  1648 ;;                  1    wreg      void 
  1649 ;; Registers used:
  1650 ;;		wreg, status,2, status,0
  1651 ;; Tracked objects:
  1652 ;;		On entry : 0/0
  1653 ;;		On exit  : 0/0
  1654 ;;		Unchanged: 0/0
  1655 ;; Data sizes:     COMMON   BANK0   BANK1   BANK3   BANK2
  1656 ;;      Params:         0       2       0       0       0
  1657 ;;      Locals:         0       0       0       0       0
  1658 ;;      Temps:          0       3       0       0       0
  1659 ;;      Totals:         0       5       0       0       0
  1660 ;;Total ram usage:        5 bytes
  1661 ;; Hardware stack levels used: 1
  1662 ;; This function calls:
  1663 ;;		Nothing
  1664 ;; This function is called by:
  1665 ;;		_init_pwm
  1666 ;;		_check_gas_level
  1667 ;; This function uses a non-reentrant model
  1668 ;;
  1669                           
  1670     0299                     _pwm_set_duty:	
  1671                           ;psect for function _pwm_set_duty
  1672                           
  1673     0299                     l1231:	
  1674                           ;incstack = 0
  1675                           ; Regs used in _pwm_set_duty: [wreg+status,2+status,0]
  1676                           
  1677                           
  1678                           ;C:/Users/GNKRISHNAN/MPLABXProjects/MINI_PROJECT.X/final.c: 78:     if (duty > 1023) dut
      +                          y = 1023;
  1679     0299  3004               	movlw	4
  1680     029A  1283               	bcf	3,5	;RP0=0, select bank0
  1681     029B  1303               	bcf	3,6	;RP1=0, select bank0
  1682     029C  0221               	subwf	pwm_set_duty@duty+1,w
  1683     029D  3000               	movlw	0
  1684     029E  1903               	skipnz
  1685     029F  0220               	subwf	pwm_set_duty@duty,w
  1686     02A0  1C03               	skipc
  1687     02A1  2AA3               	goto	u711
  1688     02A2  2AA4               	goto	u710
  1689     02A3                     u711:
  1690     02A3  2AA8               	goto	l1235
  1691     02A4                     u710:
  1692     02A4                     l1233:
  1693     02A4  30FF               	movlw	255
  1694     02A5  00A0               	movwf	pwm_set_duty@duty
  1695     02A6  3003               	movlw	3
  1696     02A7  00A1               	movwf	pwm_set_duty@duty+1
  1697     02A8                     l1235:
  1698                           
  1699                           ;C:/Users/GNKRISHNAN/MPLABXProjects/MINI_PROJECT.X/final.c: 80:     CCPR1L = (unsigned c
      +                          har)(duty >> 2);
  1700     02A8  0821               	movf	pwm_set_duty@duty+1,w
  1701     02A9  00A3               	movwf	??_pwm_set_duty+1
  1702     02AA  0820               	movf	pwm_set_duty@duty,w
  1703     02AB  00A2               	movwf	??_pwm_set_duty
  1704     02AC  1003               	clrc
  1705     02AD  0CA3               	rrf	??_pwm_set_duty+1,f
  1706     02AE  0CA2               	rrf	??_pwm_set_duty,f
  1707     02AF  1003               	clrc
  1708     02B0  0CA3               	rrf	??_pwm_set_duty+1,f
  1709     02B1  0CA2               	rrf	??_pwm_set_duty,f
  1710     02B2  0822               	movf	??_pwm_set_duty,w
  1711     02B3  0095               	movwf	21	;volatile
  1712     02B4                     l1237:
  1713                           
  1714                           ;C:/Users/GNKRISHNAN/MPLABXProjects/MINI_PROJECT.X/final.c: 81:     CCP1CONbits.CCP1Y = 
      +                          duty & 0x01;
  1715     02B4  0820               	movf	pwm_set_duty@duty,w
  1716     02B5  3901               	andlw	1
  1717     02B6  00A2               	movwf	??_pwm_set_duty
  1718     02B7  0EA2               	swapf	??_pwm_set_duty,f
  1719     02B8  0817               	movf	23,w	;volatile
  1720     02B9  0622               	xorwf	??_pwm_set_duty,w
  1721     02BA  39EF               	andlw	-17
  1722     02BB  0622               	xorwf	??_pwm_set_duty,w
  1723     02BC  0097               	movwf	23	;volatile
  1724     02BD                     l1239:
  1725                           
  1726                           ;C:/Users/GNKRISHNAN/MPLABXProjects/MINI_PROJECT.X/final.c: 82:     CCP1CONbits.CCP1X = 
      +                          (duty >> 1) & 0x01;
  1727     02BD  0821               	movf	pwm_set_duty@duty+1,w
  1728     02BE  00A3               	movwf	??_pwm_set_duty+1
  1729     02BF  0820               	movf	pwm_set_duty@duty,w
  1730     02C0  00A2               	movwf	??_pwm_set_duty
  1731     02C1  1003               	clrc
  1732     02C2  0CA3               	rrf	??_pwm_set_duty+1,f
  1733     02C3  0CA2               	rrf	??_pwm_set_duty,f
  1734     02C4  0822               	movf	??_pwm_set_duty,w
  1735     02C5  3901               	andlw	1
  1736     02C6  00A4               	movwf	??_pwm_set_duty+2
  1737     02C7  0EA4               	swapf	??_pwm_set_duty+2,f
  1738     02C8  0DA4               	rlf	??_pwm_set_duty+2,f
  1739     02C9  0817               	movf	23,w	;volatile
  1740     02CA  0624               	xorwf	??_pwm_set_duty+2,w
  1741     02CB  39DF               	andlw	-33
  1742     02CC  0624               	xorwf	??_pwm_set_duty+2,w
  1743     02CD  0097               	movwf	23	;volatile
  1744     02CE                     l119:
  1745     02CE  0008               	return
  1746     02CF                     __end_of_pwm_set_duty:
  1747                           
  1748                           	psect	text9
  1749     038F                     __ptext9:	
  1750 ;; *************** function _Lcd_Set_Cursor *****************
  1751 ;; Defined at:
  1752 ;;		line 77 in file "C:\Users\GNKRISHNAN\Documents\CODING\23EEE214_MCA\HEADERS\lcd.h"
  1753 ;; Parameters:    Size  Location     Type
  1754 ;;  a               1    wreg     unsigned char 
  1755 ;;  b               1    4[COMMON] unsigned char 
  1756 ;; Auto vars:     Size  Location     Type
  1757 ;;  a               1    6[COMMON] unsigned char 
  1758 ;;  temp            1    9[COMMON] unsigned char 
  1759 ;;  y               1    8[COMMON] unsigned char 
  1760 ;;  z               1    7[COMMON] unsigned char 
  1761 ;; Return value:  Size  Location     Type
  1762 ;;                  1    wreg      void 
  1763 ;; Registers used:
  1764 ;;		wreg, status,2, status,0, pclath, cstack
  1765 ;; Tracked objects:
  1766 ;;		On entry : 0/0
  1767 ;;		On exit  : 0/0
  1768 ;;		Unchanged: 0/0
  1769 ;; Data sizes:     COMMON   BANK0   BANK1   BANK3   BANK2
  1770 ;;      Params:         1       0       0       0       0
  1771 ;;      Locals:         4       0       0       0       0
  1772 ;;      Temps:          1       0       0       0       0
  1773 ;;      Totals:         6       0       0       0       0
  1774 ;;Total ram usage:        6 bytes
  1775 ;; Hardware stack levels used: 1
  1776 ;; Hardware stack levels required when called: 2
  1777 ;; This function calls:
  1778 ;;		_Lcd_Cmd
  1779 ;; This function is called by:
  1780 ;;		_main
  1781 ;;		_check_gas_level
  1782 ;; This function uses a non-reentrant model
  1783 ;;
  1784                           
  1785     038F                     _Lcd_Set_Cursor:	
  1786                           ;psect for function _Lcd_Set_Cursor
  1787                           
  1788                           
  1789                           ;incstack = 0
  1790                           ; Regs used in _Lcd_Set_Cursor: [wreg+status,2+status,0+pclath+cstack]
  1791                           ;Lcd_Set_Cursor@a stored from wreg
  1792     038F  00F6               	movwf	Lcd_Set_Cursor@a
  1793     0390                     l1165:
  1794                           
  1795                           ;C:\Users\GNKRISHNAN\Documents\CODING\23EEE214_MCA\HEADERS\lcd.h: 77: {;C:\Users\GNKRISH
      +                          NAN\Documents\CODING\23EEE214_MCA\HEADERS\lcd.h: 78:    char Lower_Nibble,Upper_Nibble;;
      +                          C:\Users\GNKRISHNAN\Documents\CODING\23EEE214_MCA\HEADERS\lcd.h: 79:    Lower_Nibble = d
      +                          ata&0x0F;;C:\Users\GNKRISHNAN\Documents\CODING\23EEE214_MCA\HEADERS\lcd.h: 80:    Upper_
      +                          Nibble = data&0xF0;
  1796     0390  0376               	decf	Lcd_Set_Cursor@a,w
  1797     0391  1D03               	btfss	3,2
  1798     0392  2B94               	goto	u641
  1799     0393  2B95               	goto	u640
  1800     0394                     u641:
  1801     0394  2BB3               	goto	l1177
  1802     0395                     u640:
  1803     0395                     l1167:
  1804                           
  1805                           ;C:\Users\GNKRISHNAN\Documents\CODING\23EEE214_MCA\HEADERS\lcd.h: 81:    RD2 = 1;;C:\Use
      +                          rs\GNKRISHNAN\Documents\CODING\23EEE214_MCA\HEADERS\lcd.h: 82:    Lcd_SetBit(Upper_Nibbl
      +                          e>>4);
  1806     0395  0874               	movf	Lcd_Set_Cursor@b,w
  1807     0396  3E7F               	addlw	127
  1808     0397  00F9               	movwf	Lcd_Set_Cursor@temp
  1809                           
  1810                           ;C:\Users\GNKRISHNAN\Documents\CODING\23EEE214_MCA\HEADERS\lcd.h: 83:    RD3 = 1;
  1811     0398  0879               	movf	Lcd_Set_Cursor@temp,w
  1812     0399  00F5               	movwf	??_Lcd_Set_Cursor
  1813     039A  3004               	movlw	4
  1814     039B                     u655:
  1815     039B  1003               	clrc
  1816     039C  0CF5               	rrf	??_Lcd_Set_Cursor,f
  1817     039D  3EFF               	addlw	-1
  1818     039E  1D03               	skipz
  1819     039F  2B9B               	goto	u655
  1820     03A0  0875               	movf	??_Lcd_Set_Cursor,w
  1821     03A1  00F7               	movwf	Lcd_Set_Cursor@z
  1822     03A2                     l1169:
  1823                           
  1824                           ;C:\Users\GNKRISHNAN\Documents\CODING\23EEE214_MCA\HEADERS\lcd.h: 84:    for(int i=21304
      +                          83; i<=0; i--) __nop();
  1825     03A2  0879               	movf	Lcd_Set_Cursor@temp,w
  1826     03A3  00F8               	movwf	Lcd_Set_Cursor@y
  1827     03A4                     l1171:
  1828     03A4  300F               	movlw	15
  1829     03A5  05F8               	andwf	Lcd_Set_Cursor@y,f
  1830     03A6                     l1173:
  1831                           
  1832                           ;C:\Users\GNKRISHNAN\Documents\CODING\23EEE214_MCA\HEADERS\lcd.h: 85:    RD3 = 0;
  1833     03A6  0877               	movf	Lcd_Set_Cursor@z,w
  1834     03A7  120A  118A  2238  120A  118A  	fcall	_Lcd_Cmd
  1835     03AC                     l1175:
  1836                           
  1837                           ;C:\Users\GNKRISHNAN\Documents\CODING\23EEE214_MCA\HEADERS\lcd.h: 86:    Lcd_SetBit(Lowe
      +                          r_Nibble);
  1838     03AC  0878               	movf	Lcd_Set_Cursor@y,w
  1839     03AD  120A  118A  2238  120A  118A  	fcall	_Lcd_Cmd
  1840                           
  1841                           ;C:\Users\GNKRISHNAN\Documents\CODING\23EEE214_MCA\HEADERS\lcd.h: 87:    RD3 = 1;
  1842     03B2  2BD6               	goto	l79
  1843     03B3                     l1177:
  1844     03B3  3002               	movlw	2
  1845     03B4  0676               	xorwf	Lcd_Set_Cursor@a,w
  1846     03B5  1D03               	btfss	3,2
  1847     03B6  2BB8               	goto	u661
  1848     03B7  2BB9               	goto	u660
  1849     03B8                     u661:
  1850     03B8  2BD6               	goto	l79
  1851     03B9                     u660:
  1852     03B9                     l1179:
  1853                           
  1854                           ;C:\Users\GNKRISHNAN\Documents\CODING\23EEE214_MCA\HEADERS\lcd.h: 89:    RD3 = 0;;C:\Use
      +                          rs\GNKRISHNAN\Documents\CODING\23EEE214_MCA\HEADERS\lcd.h: 90: }
  1855     03B9  0874               	movf	Lcd_Set_Cursor@b,w
  1856     03BA  3EBF               	addlw	191
  1857     03BB  00F9               	movwf	Lcd_Set_Cursor@temp
  1858                           
  1859                           ;C:\Users\GNKRISHNAN\Documents\CODING\23EEE214_MCA\HEADERS\lcd.h: 91: 
  1860     03BC  0879               	movf	Lcd_Set_Cursor@temp,w
  1861     03BD  00F5               	movwf	??_Lcd_Set_Cursor
  1862     03BE  3004               	movlw	4
  1863     03BF                     u675:
  1864     03BF  1003               	clrc
  1865     03C0  0CF5               	rrf	??_Lcd_Set_Cursor,f
  1866     03C1  3EFF               	addlw	-1
  1867     03C2  1D03               	skipz
  1868     03C3  2BBF               	goto	u675
  1869     03C4  0875               	movf	??_Lcd_Set_Cursor,w
  1870     03C5  00F7               	movwf	Lcd_Set_Cursor@z
  1871     03C6                     l1181:
  1872                           
  1873                           ;C:\Users\GNKRISHNAN\Documents\CODING\23EEE214_MCA\HEADERS\lcd.h: 92: void Lcd_Print_Str
      +                          ing(char *a)
  1874     03C6  0879               	movf	Lcd_Set_Cursor@temp,w
  1875     03C7  00F8               	movwf	Lcd_Set_Cursor@y
  1876     03C8                     l1183:
  1877     03C8  300F               	movlw	15
  1878     03C9  05F8               	andwf	Lcd_Set_Cursor@y,f
  1879     03CA                     l1185:
  1880                           
  1881                           ;C:\Users\GNKRISHNAN\Documents\CODING\23EEE214_MCA\HEADERS\lcd.h: 93: {
  1882     03CA  0877               	movf	Lcd_Set_Cursor@z,w
  1883     03CB  120A  118A  2238  120A  118A  	fcall	_Lcd_Cmd
  1884     03D0                     l1187:
  1885                           
  1886                           ;C:\Users\GNKRISHNAN\Documents\CODING\23EEE214_MCA\HEADERS\lcd.h: 94:  int i;
  1887     03D0  0878               	movf	Lcd_Set_Cursor@y,w
  1888     03D1  120A  118A  2238  120A  118A  	fcall	_Lcd_Cmd
  1889     03D6                     l79:
  1890     03D6  0008               	return
  1891     03D7                     __end_of_Lcd_Set_Cursor:
  1892                           
  1893                           	psect	text10
  1894     06B4                     __ptext10:	
  1895 ;; *************** function _calculate_lpg_ppm *****************
  1896 ;; Defined at:
  1897 ;;		line 98 in file "C:/Users/GNKRISHNAN/MPLABXProjects/MINI_PROJECT.X/final.c"
  1898 ;; Parameters:    Size  Location     Type
  1899 ;;  adc_value       2    0[BANK0 ] unsigned int 
  1900 ;; Auto vars:     Size  Location     Type
  1901 ;;  rs_ro_ratio     2    8[BANK0 ] unsigned int 
  1902 ;;  voltage_mv      2    6[BANK0 ] unsigned int 
  1903 ;;  rs              2    4[BANK0 ] unsigned int 
  1904 ;; Return value:  Size  Location     Type
  1905 ;;                  2    0[BANK0 ] unsigned int 
  1906 ;; Registers used:
  1907 ;;		wreg, fsr0l, fsr0h, status,2, status,0, pclath, cstack
  1908 ;; Tracked objects:
  1909 ;;		On entry : 0/0
  1910 ;;		On exit  : 0/0
  1911 ;;		Unchanged: 0/0
  1912 ;; Data sizes:     COMMON   BANK0   BANK1   BANK3   BANK2
  1913 ;;      Params:         0       2       0       0       0
  1914 ;;      Locals:         0       6       0       0       0
  1915 ;;      Temps:          0       2       0       0       0
  1916 ;;      Totals:         0      10       0       0       0
  1917 ;;Total ram usage:       10 bytes
  1918 ;; Hardware stack levels used: 1
  1919 ;; Hardware stack levels required when called: 1
  1920 ;; This function calls:
  1921 ;;		___lwdiv
  1922 ;;		___wmul
  1923 ;; This function is called by:
  1924 ;;		_main
  1925 ;; This function uses a non-reentrant model
  1926 ;;
  1927                           
  1928     06B4                     _calculate_lpg_ppm:	
  1929                           ;psect for function _calculate_lpg_ppm
  1930                           
  1931     06B4                     l1383:	
  1932                           ;incstack = 0
  1933                           ; Regs used in _calculate_lpg_ppm: [wreg-fsr0h+status,2+status,0+pclath+cstack]
  1934                           
  1935                           
  1936                           ;C:/Users/GNKRISHNAN/MPLABXProjects/MINI_PROJECT.X/final.c: 99:     unsigned int voltage
      +                          _mv = (adc_value * 5000) / 1023;
  1937     06B4  30FF               	movlw	255
  1938     06B5  00F6               	movwf	___lwdiv@divisor
  1939     06B6  3003               	movlw	3
  1940     06B7  00F7               	movwf	___lwdiv@divisor+1
  1941     06B8  1283               	bcf	3,5	;RP0=0, select bank0
  1942     06B9  1303               	bcf	3,6	;RP1=0, select bank0
  1943     06BA  0821               	movf	calculate_lpg_ppm@adc_value+1,w
  1944     06BB  00F1               	movwf	___wmul@multiplier+1
  1945     06BC  0820               	movf	calculate_lpg_ppm@adc_value,w
  1946     06BD  00F0               	movwf	___wmul@multiplier
  1947     06BE  3088               	movlw	136
  1948     06BF  00F2               	movwf	___wmul@multiplicand
  1949     06C0  3013               	movlw	19
  1950     06C1  00F3               	movwf	___wmul@multiplicand+1
  1951     06C2  120A  118A  2274  120A  118A  	fcall	___wmul
  1952     06C7  0871               	movf	?___wmul+1,w
  1953     06C8  00F9               	movwf	___lwdiv@dividend+1
  1954     06C9  0870               	movf	?___wmul,w
  1955     06CA  00F8               	movwf	___lwdiv@dividend
  1956     06CB  120A  118A  2307  120A  118A  	fcall	___lwdiv
  1957     06D0  0877               	movf	?___lwdiv+1,w
  1958     06D1  1283               	bcf	3,5	;RP0=0, select bank0
  1959     06D2  1303               	bcf	3,6	;RP1=0, select bank0
  1960     06D3  00A7               	movwf	calculate_lpg_ppm@voltage_mv+1
  1961     06D4  0876               	movf	?___lwdiv,w
  1962     06D5  00A6               	movwf	calculate_lpg_ppm@voltage_mv
  1963                           
  1964                           ;C:/Users/GNKRISHNAN/MPLABXProjects/MINI_PROJECT.X/final.c: 100:     unsigned int rs = (
      +                          (5000 - voltage_mv) * 1000) / voltage_mv;
  1965     06D6  0827               	movf	calculate_lpg_ppm@voltage_mv+1,w
  1966     06D7  00F7               	movwf	___lwdiv@divisor+1
  1967     06D8  0826               	movf	calculate_lpg_ppm@voltage_mv,w
  1968     06D9  00F6               	movwf	___lwdiv@divisor
  1969     06DA  3088               	movlw	136
  1970     06DB  00A2               	movwf	??_calculate_lpg_ppm
  1971     06DC  3013               	movlw	19
  1972     06DD  00A3               	movwf	??_calculate_lpg_ppm+1
  1973     06DE  0826               	movf	calculate_lpg_ppm@voltage_mv,w
  1974     06DF  0222               	subwf	??_calculate_lpg_ppm,w
  1975     06E0  00F0               	movwf	___wmul@multiplier
  1976     06E1  0827               	movf	calculate_lpg_ppm@voltage_mv+1,w
  1977     06E2  1C03               	skipc
  1978     06E3  0A27               	incf	calculate_lpg_ppm@voltage_mv+1,w
  1979     06E4  0223               	subwf	??_calculate_lpg_ppm+1,w
  1980     06E5  00F1               	movwf	___wmul@multiplier+1
  1981     06E6  30E8               	movlw	232
  1982     06E7  00F2               	movwf	___wmul@multiplicand
  1983     06E8  3003               	movlw	3
  1984     06E9  00F3               	movwf	___wmul@multiplicand+1
  1985     06EA  120A  118A  2274  120A  118A  	fcall	___wmul
  1986     06EF  0871               	movf	?___wmul+1,w
  1987     06F0  00F9               	movwf	___lwdiv@dividend+1
  1988     06F1  0870               	movf	?___wmul,w
  1989     06F2  00F8               	movwf	___lwdiv@dividend
  1990     06F3  120A  118A  2307  120A  118A  	fcall	___lwdiv
  1991     06F8  0877               	movf	?___lwdiv+1,w
  1992     06F9  1283               	bcf	3,5	;RP0=0, select bank0
  1993     06FA  1303               	bcf	3,6	;RP1=0, select bank0
  1994     06FB  00A5               	movwf	calculate_lpg_ppm@rs+1
  1995     06FC  0876               	movf	?___lwdiv,w
  1996     06FD  00A4               	movwf	calculate_lpg_ppm@rs
  1997                           
  1998                           ;C:/Users/GNKRISHNAN/MPLABXProjects/MINI_PROJECT.X/final.c: 101:     unsigned int rs_ro_
      +                          ratio = rs / 10;
  1999     06FE  300A               	movlw	10
  2000     06FF  00F6               	movwf	___lwdiv@divisor
  2001     0700  3000               	movlw	0
  2002     0701  00F7               	movwf	___lwdiv@divisor+1
  2003     0702  0825               	movf	calculate_lpg_ppm@rs+1,w
  2004     0703  00F9               	movwf	___lwdiv@dividend+1
  2005     0704  0824               	movf	calculate_lpg_ppm@rs,w
  2006     0705  00F8               	movwf	___lwdiv@dividend
  2007     0706  120A  118A  2307  120A  118A  	fcall	___lwdiv
  2008     070B  0877               	movf	?___lwdiv+1,w
  2009     070C  1283               	bcf	3,5	;RP0=0, select bank0
  2010     070D  1303               	bcf	3,6	;RP1=0, select bank0
  2011     070E  00A9               	movwf	calculate_lpg_ppm@rs_ro_ratio+1
  2012     070F  0876               	movf	?___lwdiv,w
  2013     0710  00A8               	movwf	calculate_lpg_ppm@rs_ro_ratio
  2014     0711                     l1385:
  2015                           
  2016                           ;C:/Users/GNKRISHNAN/MPLABXProjects/MINI_PROJECT.X/final.c: 102:     if (rs_ro_ratio < 1
      +                          0) return ppm_lookup[0];
  2017     0711  3000               	movlw	0
  2018     0712  0229               	subwf	calculate_lpg_ppm@rs_ro_ratio+1,w
  2019     0713  300A               	movlw	10
  2020     0714  1903               	skipnz
  2021     0715  0228               	subwf	calculate_lpg_ppm@rs_ro_ratio,w
  2022     0716  1803               	skipnc
  2023     0717  2F19               	goto	u1021
  2024     0718  2F1A               	goto	u1020
  2025     0719                     u1021:
  2026     0719  2F29               	goto	l1393
  2027     071A                     u1020:
  2028     071A                     l1387:
  2029     071A  3001               	movlw	low (_ppm_lookup-__stringbase)
  2030     071B  0084               	movwf	4
  2031     071C  120A  118A  200D  120A  118A  	fcall	stringdir
  2032     0721  00A0               	movwf	?_calculate_lpg_ppm
  2033     0722  120A  118A  200D  120A  118A  	fcall	stringdir
  2034     0727  00A1               	movwf	?_calculate_lpg_ppm+1
  2035     0728  2FF7               	goto	l131
  2036     0729                     l1393:
  2037     0729  3000               	movlw	0
  2038     072A  0229               	subwf	calculate_lpg_ppm@rs_ro_ratio+1,w
  2039     072B  3014               	movlw	20
  2040     072C  1903               	skipnz
  2041     072D  0228               	subwf	calculate_lpg_ppm@rs_ro_ratio,w
  2042     072E  1803               	skipnc
  2043     072F  2F31               	goto	u1031
  2044     0730  2F32               	goto	u1030
  2045     0731                     u1031:
  2046     0731  2F41               	goto	l1401
  2047     0732                     u1030:
  2048     0732                     l1395:
  2049     0732  3003               	movlw	low (((_ppm_lookup+2)-__stringbase)| (0+32768))
  2050     0733  0084               	movwf	4
  2051     0734  120A  118A  200D  120A  118A  	fcall	stringdir
  2052     0739  00A0               	movwf	?_calculate_lpg_ppm
  2053     073A  120A  118A  200D  120A  118A  	fcall	stringdir
  2054     073F  00A1               	movwf	?_calculate_lpg_ppm+1
  2055     0740  2FF7               	goto	l131
  2056     0741                     l1401:
  2057     0741  3000               	movlw	0
  2058     0742  0229               	subwf	calculate_lpg_ppm@rs_ro_ratio+1,w
  2059     0743  3023               	movlw	35
  2060     0744  1903               	skipnz
  2061     0745  0228               	subwf	calculate_lpg_ppm@rs_ro_ratio,w
  2062     0746  1803               	skipnc
  2063     0747  2F49               	goto	u1041
  2064     0748  2F4A               	goto	u1040
  2065     0749                     u1041:
  2066     0749  2F59               	goto	l1409
  2067     074A                     u1040:
  2068     074A                     l1403:
  2069     074A  3005               	movlw	low (((_ppm_lookup+4)-__stringbase)| (0+32768))
  2070     074B  0084               	movwf	4
  2071     074C  120A  118A  200D  120A  118A  	fcall	stringdir
  2072     0751  00A0               	movwf	?_calculate_lpg_ppm
  2073     0752  120A  118A  200D  120A  118A  	fcall	stringdir
  2074     0757  00A1               	movwf	?_calculate_lpg_ppm+1
  2075     0758  2FF7               	goto	l131
  2076     0759                     l1409:
  2077     0759  3000               	movlw	0
  2078     075A  0229               	subwf	calculate_lpg_ppm@rs_ro_ratio+1,w
  2079     075B  3032               	movlw	50
  2080     075C  1903               	skipnz
  2081     075D  0228               	subwf	calculate_lpg_ppm@rs_ro_ratio,w
  2082     075E  1803               	skipnc
  2083     075F  2F61               	goto	u1051
  2084     0760  2F62               	goto	u1050
  2085     0761                     u1051:
  2086     0761  2F71               	goto	l1417
  2087     0762                     u1050:
  2088     0762                     l1411:
  2089     0762  3007               	movlw	low (((_ppm_lookup+6)-__stringbase)| (0+32768))
  2090     0763  0084               	movwf	4
  2091     0764  120A  118A  200D  120A  118A  	fcall	stringdir
  2092     0769  00A0               	movwf	?_calculate_lpg_ppm
  2093     076A  120A  118A  200D  120A  118A  	fcall	stringdir
  2094     076F  00A1               	movwf	?_calculate_lpg_ppm+1
  2095     0770  2FF7               	goto	l131
  2096     0771                     l1417:
  2097     0771  3000               	movlw	0
  2098     0772  0229               	subwf	calculate_lpg_ppm@rs_ro_ratio+1,w
  2099     0773  304B               	movlw	75
  2100     0774  1903               	skipnz
  2101     0775  0228               	subwf	calculate_lpg_ppm@rs_ro_ratio,w
  2102     0776  1803               	skipnc
  2103     0777  2F79               	goto	u1061
  2104     0778  2F7A               	goto	u1060
  2105     0779                     u1061:
  2106     0779  2F89               	goto	l1425
  2107     077A                     u1060:
  2108     077A                     l1419:
  2109     077A  3009               	movlw	low (((_ppm_lookup+8)-__stringbase)| (0+32768))
  2110     077B  0084               	movwf	4
  2111     077C  120A  118A  200D  120A  118A  	fcall	stringdir
  2112     0781  00A0               	movwf	?_calculate_lpg_ppm
  2113     0782  120A  118A  200D  120A  118A  	fcall	stringdir
  2114     0787  00A1               	movwf	?_calculate_lpg_ppm+1
  2115     0788  2FF7               	goto	l131
  2116     0789                     l1425:
  2117     0789  3000               	movlw	0
  2118     078A  0229               	subwf	calculate_lpg_ppm@rs_ro_ratio+1,w
  2119     078B  3064               	movlw	100
  2120     078C  1903               	skipnz
  2121     078D  0228               	subwf	calculate_lpg_ppm@rs_ro_ratio,w
  2122     078E  1803               	skipnc
  2123     078F  2F91               	goto	u1071
  2124     0790  2F92               	goto	u1070
  2125     0791                     u1071:
  2126     0791  2FA1               	goto	l1433
  2127     0792                     u1070:
  2128     0792                     l1427:
  2129     0792  300B               	movlw	low (((_ppm_lookup+10)-__stringbase)| (0+32768))
  2130     0793  0084               	movwf	4
  2131     0794  120A  118A  200D  120A  118A  	fcall	stringdir
  2132     0799  00A0               	movwf	?_calculate_lpg_ppm
  2133     079A  120A  118A  200D  120A  118A  	fcall	stringdir
  2134     079F  00A1               	movwf	?_calculate_lpg_ppm+1
  2135     07A0  2FF7               	goto	l131
  2136     07A1                     l1433:
  2137     07A1  3000               	movlw	0
  2138     07A2  0229               	subwf	calculate_lpg_ppm@rs_ro_ratio+1,w
  2139     07A3  3096               	movlw	150
  2140     07A4  1903               	skipnz
  2141     07A5  0228               	subwf	calculate_lpg_ppm@rs_ro_ratio,w
  2142     07A6  1803               	skipnc
  2143     07A7  2FA9               	goto	u1081
  2144     07A8  2FAA               	goto	u1080
  2145     07A9                     u1081:
  2146     07A9  2FB9               	goto	l1441
  2147     07AA                     u1080:
  2148     07AA                     l1435:
  2149     07AA  300D               	movlw	low (((_ppm_lookup+12)-__stringbase)| (0+32768))
  2150     07AB  0084               	movwf	4
  2151     07AC  120A  118A  200D  120A  118A  	fcall	stringdir
  2152     07B1  00A0               	movwf	?_calculate_lpg_ppm
  2153     07B2  120A  118A  200D  120A  118A  	fcall	stringdir
  2154     07B7  00A1               	movwf	?_calculate_lpg_ppm+1
  2155     07B8  2FF7               	goto	l131
  2156     07B9                     l1441:
  2157     07B9  3000               	movlw	0
  2158     07BA  0229               	subwf	calculate_lpg_ppm@rs_ro_ratio+1,w
  2159     07BB  30C8               	movlw	200
  2160     07BC  1903               	skipnz
  2161     07BD  0228               	subwf	calculate_lpg_ppm@rs_ro_ratio,w
  2162     07BE  1803               	skipnc
  2163     07BF  2FC1               	goto	u1091
  2164     07C0  2FC2               	goto	u1090
  2165     07C1                     u1091:
  2166     07C1  2FD1               	goto	l1449
  2167     07C2                     u1090:
  2168     07C2                     l1443:
  2169     07C2  300F               	movlw	low (((_ppm_lookup+14)-__stringbase)| (0+32768))
  2170     07C3  0084               	movwf	4
  2171     07C4  120A  118A  200D  120A  118A  	fcall	stringdir
  2172     07C9  00A0               	movwf	?_calculate_lpg_ppm
  2173     07CA  120A  118A  200D  120A  118A  	fcall	stringdir
  2174     07CF  00A1               	movwf	?_calculate_lpg_ppm+1
  2175     07D0  2FF7               	goto	l131
  2176     07D1                     l1449:
  2177     07D1  3001               	movlw	1
  2178     07D2  0229               	subwf	calculate_lpg_ppm@rs_ro_ratio+1,w
  2179     07D3  302C               	movlw	44
  2180     07D4  1903               	skipnz
  2181     07D5  0228               	subwf	calculate_lpg_ppm@rs_ro_ratio,w
  2182     07D6  1803               	skipnc
  2183     07D7  2FD9               	goto	u1101
  2184     07D8  2FDA               	goto	u1100
  2185     07D9                     u1101:
  2186     07D9  2FE9               	goto	l1457
  2187     07DA                     u1100:
  2188     07DA                     l1451:
  2189     07DA  3011               	movlw	low (((_ppm_lookup+16)-__stringbase)| (0+32768))
  2190     07DB  0084               	movwf	4
  2191     07DC  120A  118A  200D  120A  118A  	fcall	stringdir
  2192     07E1  00A0               	movwf	?_calculate_lpg_ppm
  2193     07E2  120A  118A  200D  120A  118A  	fcall	stringdir
  2194     07E7  00A1               	movwf	?_calculate_lpg_ppm+1
  2195     07E8  2FF7               	goto	l131
  2196     07E9                     l1457:
  2197     07E9  3013               	movlw	low (((_ppm_lookup+18)-__stringbase)| (0+32768))
  2198     07EA  0084               	movwf	4
  2199     07EB  120A  118A  200D  120A  118A  	fcall	stringdir
  2200     07F0  00A0               	movwf	?_calculate_lpg_ppm
  2201     07F1  120A  118A  200D  120A  118A  	fcall	stringdir
  2202     07F6  00A1               	movwf	?_calculate_lpg_ppm+1
  2203     07F7                     l131:
  2204     07F7  0008               	return
  2205     07F8                     __end_of_calculate_lpg_ppm:
  2206                           
  2207                           	psect	text11
  2208     0274                     __ptext11:	
  2209 ;; *************** function ___wmul *****************
  2210 ;; Defined at:
  2211 ;;		line 15 in file "C:\Program Files\Microchip\xc8\v2.50\pic\sources\c99\common\Umul16.c"
  2212 ;; Parameters:    Size  Location     Type
  2213 ;;  multiplier      2    0[COMMON] unsigned int 
  2214 ;;  multiplicand    2    2[COMMON] unsigned int 
  2215 ;; Auto vars:     Size  Location     Type
  2216 ;;  product         2    4[COMMON] unsigned int 
  2217 ;; Return value:  Size  Location     Type
  2218 ;;                  2    0[COMMON] unsigned int 
  2219 ;; Registers used:
  2220 ;;		wreg, status,2, status,0
  2221 ;; Tracked objects:
  2222 ;;		On entry : 0/0
  2223 ;;		On exit  : 0/0
  2224 ;;		Unchanged: 0/0
  2225 ;; Data sizes:     COMMON   BANK0   BANK1   BANK3   BANK2
  2226 ;;      Params:         4       0       0       0       0
  2227 ;;      Locals:         2       0       0       0       0
  2228 ;;      Temps:          0       0       0       0       0
  2229 ;;      Totals:         6       0       0       0       0
  2230 ;;Total ram usage:        6 bytes
  2231 ;; Hardware stack levels used: 1
  2232 ;; This function calls:
  2233 ;;		Nothing
  2234 ;; This function is called by:
  2235 ;;		_calculate_lpg_ppm
  2236 ;;		_check_gas_level
  2237 ;; This function uses a non-reentrant model
  2238 ;;
  2239                           
  2240     0274                     ___wmul:	
  2241                           ;psect for function ___wmul
  2242                           
  2243     0274                     l1241:	
  2244                           ;incstack = 0
  2245                           ; Regs used in ___wmul: [wreg+status,2+status,0]
  2246                           
  2247     0274  01F4               	clrf	___wmul@product
  2248     0275  01F5               	clrf	___wmul@product+1
  2249     0276                     l1243:
  2250     0276  1C70               	btfss	___wmul@multiplier,0
  2251     0277  2A79               	goto	u721
  2252     0278  2A7A               	goto	u720
  2253     0279                     u721:
  2254     0279  2A80               	goto	l251
  2255     027A                     u720:
  2256     027A                     l1245:
  2257     027A  0872               	movf	___wmul@multiplicand,w
  2258     027B  07F4               	addwf	___wmul@product,f
  2259     027C  1803               	skipnc
  2260     027D  0AF5               	incf	___wmul@product+1,f
  2261     027E  0873               	movf	___wmul@multiplicand+1,w
  2262     027F  07F5               	addwf	___wmul@product+1,f
  2263     0280                     l251:
  2264     0280  3001               	movlw	1
  2265     0281                     u735:
  2266     0281  1003               	clrc
  2267     0282  0DF2               	rlf	___wmul@multiplicand,f
  2268     0283  0DF3               	rlf	___wmul@multiplicand+1,f
  2269     0284  3EFF               	addlw	-1
  2270     0285  1D03               	skipz
  2271     0286  2A81               	goto	u735
  2272     0287                     l1247:
  2273     0287  3001               	movlw	1
  2274     0288                     u745:
  2275     0288  1003               	clrc
  2276     0289  0CF1               	rrf	___wmul@multiplier+1,f
  2277     028A  0CF0               	rrf	___wmul@multiplier,f
  2278     028B  3EFF               	addlw	-1
  2279     028C  1D03               	skipz
  2280     028D  2A88               	goto	u745
  2281     028E                     l1249:
  2282     028E  0870               	movf	___wmul@multiplier,w
  2283     028F  0471               	iorwf	___wmul@multiplier+1,w
  2284     0290  1D03               	btfss	3,2
  2285     0291  2A93               	goto	u751
  2286     0292  2A94               	goto	u750
  2287     0293                     u751:
  2288     0293  2A76               	goto	l1243
  2289     0294                     u750:
  2290     0294                     l1251:
  2291     0294  0875               	movf	___wmul@product+1,w
  2292     0295  00F1               	movwf	?___wmul+1
  2293     0296  0874               	movf	___wmul@product,w
  2294     0297  00F0               	movwf	?___wmul
  2295     0298                     l253:
  2296     0298  0008               	return
  2297     0299                     __end_of___wmul:
  2298                           
  2299                           	psect	text12
  2300     03D7                     __ptext12:	
  2301 ;; *************** function _Lcd_Print_Number *****************
  2302 ;; Defined at:
  2303 ;;		line 139 in file "C:/Users/GNKRISHNAN/MPLABXProjects/MINI_PROJECT.X/final.c"
  2304 ;; Parameters:    Size  Location     Type
  2305 ;;  num             2    2[BANK0 ] unsigned int 
  2306 ;; Auto vars:     Size  Location     Type
  2307 ;;  buffer          5    5[BANK0 ] unsigned char [5]
  2308 ;;  i               2   10[BANK0 ] unsigned int 
  2309 ;; Return value:  Size  Location     Type
  2310 ;;                  1    wreg      void 
  2311 ;; Registers used:
  2312 ;;		wreg, fsr0l, fsr0h, status,2, status,0, btemp+1, pclath, cstack
  2313 ;; Tracked objects:
  2314 ;;		On entry : 0/0
  2315 ;;		On exit  : 0/0
  2316 ;;		Unchanged: 0/0
  2317 ;; Data sizes:     COMMON   BANK0   BANK1   BANK3   BANK2
  2318 ;;      Params:         0       2       0       0       0
  2319 ;;      Locals:         0       7       0       0       0
  2320 ;;      Temps:          0       1       0       0       0
  2321 ;;      Totals:         0      10       0       0       0
  2322 ;;Total ram usage:       10 bytes
  2323 ;; Hardware stack levels used: 1
  2324 ;; Hardware stack levels required when called: 3
  2325 ;; This function calls:
  2326 ;;		_Lcd_Print_String
  2327 ;;		___lwdiv
  2328 ;;		___lwmod
  2329 ;; This function is called by:
  2330 ;;		_main
  2331 ;; This function uses a non-reentrant model
  2332 ;;
  2333                           
  2334     03D7                     _Lcd_Print_Number:	
  2335                           ;psect for function _Lcd_Print_Number
  2336                           
  2337     03D7                     l1461:	
  2338                           ;incstack = 0
  2339                           ; Regs used in _Lcd_Print_Number: [wreg-fsr0h+status,2+status,0+btemp+1+pclath+cstack]
  2340                           
  2341                           
  2342                           ;C:/Users/GNKRISHNAN/MPLABXProjects/MINI_PROJECT.X/final.c: 140:     char buffer[5];;C:/
      +                          Users/GNKRISHNAN/MPLABXProjects/MINI_PROJECT.X/final.c: 141:     unsigned int i = 4;
  2343     03D7  3004               	movlw	4
  2344     03D8  1283               	bcf	3,5	;RP0=0, select bank0
  2345     03D9  1303               	bcf	3,6	;RP1=0, select bank0
  2346     03DA  00AA               	movwf	Lcd_Print_Number@i
  2347     03DB  3000               	movlw	0
  2348     03DC  00AB               	movwf	Lcd_Print_Number@i+1
  2349     03DD                     l1463:
  2350                           
  2351                           ;C:/Users/GNKRISHNAN/MPLABXProjects/MINI_PROJECT.X/final.c: 142:     buffer[4] = '\0';
  2352     03DD  01A9               	clrf	Lcd_Print_Number@buffer+4
  2353     03DE                     l1465:
  2354                           
  2355                           ;C:/Users/GNKRISHNAN/MPLABXProjects/MINI_PROJECT.X/final.c: 144:         buffer[--i] = (
      +                          num % 10) + '0';
  2356     03DE  3001               	movlw	1
  2357     03DF  02AA               	subwf	Lcd_Print_Number@i,f
  2358     03E0  3000               	movlw	0
  2359     03E1  1C03               	skipc
  2360     03E2  03AB               	decf	Lcd_Print_Number@i+1,f
  2361     03E3  02AB               	subwf	Lcd_Print_Number@i+1,f
  2362     03E4  082A               	movf	Lcd_Print_Number@i,w
  2363     03E5  3E25               	addlw	(low (Lcd_Print_Number@buffer| 0))& (0+255)
  2364     03E6  0084               	movwf	4
  2365     03E7  300A               	movlw	10
  2366     03E8  00F0               	movwf	___lwmod@divisor
  2367     03E9  3000               	movlw	0
  2368     03EA  00F1               	movwf	___lwmod@divisor+1
  2369     03EB  0823               	movf	Lcd_Print_Number@num+1,w
  2370     03EC  00F3               	movwf	___lwmod@dividend+1
  2371     03ED  0822               	movf	Lcd_Print_Number@num,w
  2372     03EE  00F2               	movwf	___lwmod@dividend
  2373     03EF  120A  118A  22CF  120A  118A  	fcall	___lwmod
  2374     03F4  0870               	movf	?___lwmod,w
  2375     03F5  3E30               	addlw	48
  2376     03F6  1383               	bcf	3,7	;select IRP bank0
  2377     03F7  0080               	movwf	0
  2378     03F8                     l1467:
  2379                           
  2380                           ;C:/Users/GNKRISHNAN/MPLABXProjects/MINI_PROJECT.X/final.c: 145:         num /= 10;
  2381     03F8  300A               	movlw	10
  2382     03F9  00F6               	movwf	___lwdiv@divisor
  2383     03FA  3000               	movlw	0
  2384     03FB  00F7               	movwf	___lwdiv@divisor+1
  2385     03FC  1283               	bcf	3,5	;RP0=0, select bank0
  2386     03FD  1303               	bcf	3,6	;RP1=0, select bank0
  2387     03FE  0823               	movf	Lcd_Print_Number@num+1,w
  2388     03FF  00F9               	movwf	___lwdiv@dividend+1
  2389     0400  0822               	movf	Lcd_Print_Number@num,w
  2390     0401  00F8               	movwf	___lwdiv@dividend
  2391     0402  120A  118A  2307  120A  118A  	fcall	___lwdiv
  2392     0407  0877               	movf	?___lwdiv+1,w
  2393     0408  1283               	bcf	3,5	;RP0=0, select bank0
  2394     0409  1303               	bcf	3,6	;RP1=0, select bank0
  2395     040A  00A3               	movwf	Lcd_Print_Number@num+1
  2396     040B  0876               	movf	?___lwdiv,w
  2397     040C  00A2               	movwf	Lcd_Print_Number@num
  2398     040D                     l1469:
  2399                           
  2400                           ;C:/Users/GNKRISHNAN/MPLABXProjects/MINI_PROJECT.X/final.c: 146:     } while (num);
  2401     040D  0822               	movf	Lcd_Print_Number@num,w
  2402     040E  0423               	iorwf	Lcd_Print_Number@num+1,w
  2403     040F  1D03               	btfss	3,2
  2404     0410  2C12               	goto	u1111
  2405     0411  2C13               	goto	u1110
  2406     0412                     u1111:
  2407     0412  2BDE               	goto	l1465
  2408     0413                     u1110:
  2409     0413                     l1471:
  2410                           
  2411                           ;C:/Users/GNKRISHNAN/MPLABXProjects/MINI_PROJECT.X/final.c: 147:     Lcd_Print_String(&b
      +                          uffer[i]);
  2412     0413  3025               	movlw	(low (Lcd_Print_Number@buffer| 0))& (0+255)
  2413     0414  072A               	addwf	Lcd_Print_Number@i,w
  2414     0415  00A4               	movwf	??_Lcd_Print_Number
  2415     0416  0824               	movf	??_Lcd_Print_Number,w
  2416     0417  00F9               	movwf	Lcd_Print_String@a
  2417     0418  3000               	movlw	0
  2418     0419  00FA               	movwf	Lcd_Print_String@a+1
  2419     041A  120A  118A  2349  120A  118A  	fcall	_Lcd_Print_String
  2420     041F                     l165:
  2421     041F  0008               	return
  2422     0420                     __end_of_Lcd_Print_Number:
  2423                           
  2424                           	psect	text13
  2425     02CF                     __ptext13:	
  2426 ;; *************** function ___lwmod *****************
  2427 ;; Defined at:
  2428 ;;		line 5 in file "C:\Program Files\Microchip\xc8\v2.50\pic\sources\c99\common\lwmod.c"
  2429 ;; Parameters:    Size  Location     Type
  2430 ;;  divisor         2    0[COMMON] unsigned int 
  2431 ;;  dividend        2    2[COMMON] unsigned int 
  2432 ;; Auto vars:     Size  Location     Type
  2433 ;;  counter         1    4[COMMON] unsigned char 
  2434 ;; Return value:  Size  Location     Type
  2435 ;;                  2    0[COMMON] unsigned int 
  2436 ;; Registers used:
  2437 ;;		wreg, status,2, status,0
  2438 ;; Tracked objects:
  2439 ;;		On entry : 0/0
  2440 ;;		On exit  : 0/0
  2441 ;;		Unchanged: 0/0
  2442 ;; Data sizes:     COMMON   BANK0   BANK1   BANK3   BANK2
  2443 ;;      Params:         4       0       0       0       0
  2444 ;;      Locals:         1       0       0       0       0
  2445 ;;      Temps:          0       0       0       0       0
  2446 ;;      Totals:         5       0       0       0       0
  2447 ;;Total ram usage:        5 bytes
  2448 ;; Hardware stack levels used: 1
  2449 ;; This function calls:
  2450 ;;		Nothing
  2451 ;; This function is called by:
  2452 ;;		_Lcd_Print_Number
  2453 ;; This function uses a non-reentrant model
  2454 ;;
  2455                           
  2456     02CF                     ___lwmod:	
  2457                           ;psect for function ___lwmod
  2458                           
  2459     02CF                     l1305:	
  2460                           ;incstack = 0
  2461                           ; Regs used in ___lwmod: [wreg+status,2+status,0]
  2462                           
  2463     02CF  0870               	movf	___lwmod@divisor,w
  2464     02D0  0471               	iorwf	___lwmod@divisor+1,w
  2465     02D1  1903               	btfsc	3,2
  2466     02D2  2AD4               	goto	u901
  2467     02D3  2AD5               	goto	u900
  2468     02D4                     u901:
  2469     02D4  2B02               	goto	l1323
  2470     02D5                     u900:
  2471     02D5                     l1307:
  2472     02D5  3001               	movlw	1
  2473     02D6  00F4               	movwf	___lwmod@counter
  2474     02D7  2AE1               	goto	l1313
  2475     02D8                     l1309:
  2476     02D8  3001               	movlw	1
  2477     02D9                     u915:
  2478     02D9  1003               	clrc
  2479     02DA  0DF0               	rlf	___lwmod@divisor,f
  2480     02DB  0DF1               	rlf	___lwmod@divisor+1,f
  2481     02DC  3EFF               	addlw	-1
  2482     02DD  1D03               	skipz
  2483     02DE  2AD9               	goto	u915
  2484     02DF                     l1311:
  2485     02DF  3001               	movlw	1
  2486     02E0  07F4               	addwf	___lwmod@counter,f
  2487     02E1                     l1313:
  2488     02E1  1FF1               	btfss	___lwmod@divisor+1,7
  2489     02E2  2AE4               	goto	u921
  2490     02E3  2AE5               	goto	u920
  2491     02E4                     u921:
  2492     02E4  2AD8               	goto	l1309
  2493     02E5                     u920:
  2494     02E5                     l1315:
  2495     02E5  0871               	movf	___lwmod@divisor+1,w
  2496     02E6  0273               	subwf	___lwmod@dividend+1,w
  2497     02E7  1D03               	skipz
  2498     02E8  2AEB               	goto	u935
  2499     02E9  0870               	movf	___lwmod@divisor,w
  2500     02EA  0272               	subwf	___lwmod@dividend,w
  2501     02EB                     u935:
  2502     02EB  1C03               	skipc
  2503     02EC  2AEE               	goto	u931
  2504     02ED  2AEF               	goto	u930
  2505     02EE                     u931:
  2506     02EE  2AF5               	goto	l1319
  2507     02EF                     u930:
  2508     02EF                     l1317:
  2509     02EF  0870               	movf	___lwmod@divisor,w
  2510     02F0  02F2               	subwf	___lwmod@dividend,f
  2511     02F1  0871               	movf	___lwmod@divisor+1,w
  2512     02F2  1C03               	skipc
  2513     02F3  03F3               	decf	___lwmod@dividend+1,f
  2514     02F4  02F3               	subwf	___lwmod@dividend+1,f
  2515     02F5                     l1319:
  2516     02F5  3001               	movlw	1
  2517     02F6                     u945:
  2518     02F6  1003               	clrc
  2519     02F7  0CF1               	rrf	___lwmod@divisor+1,f
  2520     02F8  0CF0               	rrf	___lwmod@divisor,f
  2521     02F9  3EFF               	addlw	-1
  2522     02FA  1D03               	skipz
  2523     02FB  2AF6               	goto	u945
  2524     02FC                     l1321:
  2525     02FC  3001               	movlw	1
  2526     02FD  02F4               	subwf	___lwmod@counter,f
  2527     02FE  1D03               	btfss	3,2
  2528     02FF  2B01               	goto	u951
  2529     0300  2B02               	goto	u950
  2530     0301                     u951:
  2531     0301  2AE5               	goto	l1315
  2532     0302                     u950:
  2533     0302                     l1323:
  2534     0302  0873               	movf	___lwmod@dividend+1,w
  2535     0303  00F1               	movwf	?___lwmod+1
  2536     0304  0872               	movf	___lwmod@dividend,w
  2537     0305  00F0               	movwf	?___lwmod
  2538     0306                     l541:
  2539     0306  0008               	return
  2540     0307                     __end_of___lwmod:
  2541                           
  2542                           	psect	text14
  2543     0307                     __ptext14:	
  2544 ;; *************** function ___lwdiv *****************
  2545 ;; Defined at:
  2546 ;;		line 5 in file "C:\Program Files\Microchip\xc8\v2.50\pic\sources\c99\common\lwdiv.c"
  2547 ;; Parameters:    Size  Location     Type
  2548 ;;  divisor         2    6[COMMON] unsigned int 
  2549 ;;  dividend        2    8[COMMON] unsigned int 
  2550 ;; Auto vars:     Size  Location     Type
  2551 ;;  quotient        2   10[COMMON] unsigned int 
  2552 ;;  counter         1   12[COMMON] unsigned char 
  2553 ;; Return value:  Size  Location     Type
  2554 ;;                  2    6[COMMON] unsigned int 
  2555 ;; Registers used:
  2556 ;;		wreg, status,2, status,0
  2557 ;; Tracked objects:
  2558 ;;		On entry : 0/0
  2559 ;;		On exit  : 0/0
  2560 ;;		Unchanged: 0/0
  2561 ;; Data sizes:     COMMON   BANK0   BANK1   BANK3   BANK2
  2562 ;;      Params:         4       0       0       0       0
  2563 ;;      Locals:         3       0       0       0       0
  2564 ;;      Temps:          0       0       0       0       0
  2565 ;;      Totals:         7       0       0       0       0
  2566 ;;Total ram usage:        7 bytes
  2567 ;; Hardware stack levels used: 1
  2568 ;; This function calls:
  2569 ;;		Nothing
  2570 ;; This function is called by:
  2571 ;;		_calculate_lpg_ppm
  2572 ;;		_check_gas_level
  2573 ;;		_Lcd_Print_Number
  2574 ;; This function uses a non-reentrant model
  2575 ;;
  2576                           
  2577     0307                     ___lwdiv:	
  2578                           ;psect for function ___lwdiv
  2579                           
  2580     0307                     l1279:	
  2581                           ;incstack = 0
  2582                           ; Regs used in ___lwdiv: [wreg+status,2+status,0]
  2583                           
  2584     0307  01FA               	clrf	___lwdiv@quotient
  2585     0308  01FB               	clrf	___lwdiv@quotient+1
  2586     0309                     l1281:
  2587     0309  0876               	movf	___lwdiv@divisor,w
  2588     030A  0477               	iorwf	___lwdiv@divisor+1,w
  2589     030B  1903               	btfsc	3,2
  2590     030C  2B0E               	goto	u831
  2591     030D  2B0F               	goto	u830
  2592     030E                     u831:
  2593     030E  2B44               	goto	l1301
  2594     030F                     u830:
  2595     030F                     l1283:
  2596     030F  3001               	movlw	1
  2597     0310  00FC               	movwf	___lwdiv@counter
  2598     0311  2B1B               	goto	l1289
  2599     0312                     l1285:
  2600     0312  3001               	movlw	1
  2601     0313                     u845:
  2602     0313  1003               	clrc
  2603     0314  0DF6               	rlf	___lwdiv@divisor,f
  2604     0315  0DF7               	rlf	___lwdiv@divisor+1,f
  2605     0316  3EFF               	addlw	-1
  2606     0317  1D03               	skipz
  2607     0318  2B13               	goto	u845
  2608     0319                     l1287:
  2609     0319  3001               	movlw	1
  2610     031A  07FC               	addwf	___lwdiv@counter,f
  2611     031B                     l1289:
  2612     031B  1FF7               	btfss	___lwdiv@divisor+1,7
  2613     031C  2B1E               	goto	u851
  2614     031D  2B1F               	goto	u850
  2615     031E                     u851:
  2616     031E  2B12               	goto	l1285
  2617     031F                     u850:
  2618     031F                     l1291:
  2619     031F  3001               	movlw	1
  2620     0320                     u865:
  2621     0320  1003               	clrc
  2622     0321  0DFA               	rlf	___lwdiv@quotient,f
  2623     0322  0DFB               	rlf	___lwdiv@quotient+1,f
  2624     0323  3EFF               	addlw	-1
  2625     0324  1D03               	skipz
  2626     0325  2B20               	goto	u865
  2627     0326  0877               	movf	___lwdiv@divisor+1,w
  2628     0327  0279               	subwf	___lwdiv@dividend+1,w
  2629     0328  1D03               	skipz
  2630     0329  2B2C               	goto	u875
  2631     032A  0876               	movf	___lwdiv@divisor,w
  2632     032B  0278               	subwf	___lwdiv@dividend,w
  2633     032C                     u875:
  2634     032C  1C03               	skipc
  2635     032D  2B2F               	goto	u871
  2636     032E  2B30               	goto	u870
  2637     032F                     u871:
  2638     032F  2B37               	goto	l1297
  2639     0330                     u870:
  2640     0330                     l1293:
  2641     0330  0876               	movf	___lwdiv@divisor,w
  2642     0331  02F8               	subwf	___lwdiv@dividend,f
  2643     0332  0877               	movf	___lwdiv@divisor+1,w
  2644     0333  1C03               	skipc
  2645     0334  03F9               	decf	___lwdiv@dividend+1,f
  2646     0335  02F9               	subwf	___lwdiv@dividend+1,f
  2647     0336                     l1295:
  2648     0336  147A               	bsf	___lwdiv@quotient,0
  2649     0337                     l1297:
  2650     0337  3001               	movlw	1
  2651     0338                     u885:
  2652     0338  1003               	clrc
  2653     0339  0CF7               	rrf	___lwdiv@divisor+1,f
  2654     033A  0CF6               	rrf	___lwdiv@divisor,f
  2655     033B  3EFF               	addlw	-1
  2656     033C  1D03               	skipz
  2657     033D  2B38               	goto	u885
  2658     033E                     l1299:
  2659     033E  3001               	movlw	1
  2660     033F  02FC               	subwf	___lwdiv@counter,f
  2661     0340  1D03               	btfss	3,2
  2662     0341  2B43               	goto	u891
  2663     0342  2B44               	goto	u890
  2664     0343                     u891:
  2665     0343  2B1F               	goto	l1291
  2666     0344                     u890:
  2667     0344                     l1301:
  2668     0344  087B               	movf	___lwdiv@quotient+1,w
  2669     0345  00F7               	movwf	?___lwdiv+1
  2670     0346  087A               	movf	___lwdiv@quotient,w
  2671     0347  00F6               	movwf	?___lwdiv
  2672     0348                     l531:
  2673     0348  0008               	return
  2674     0349                     __end_of___lwdiv:
  2675                           
  2676                           	psect	text15
  2677     0349                     __ptext15:	
  2678 ;; *************** function _Lcd_Print_String *****************
  2679 ;; Defined at:
  2680 ;;		line 132 in file "C:\Users\GNKRISHNAN\Documents\CODING\23EEE214_MCA\HEADERS\lcd.h"
  2681 ;; Parameters:    Size  Location     Type
  2682 ;;  a               2    9[COMMON] PTR unsigned char 
  2683 ;;		 -> Lcd_Print_Number@buffer(5), STR_4(16), STR_3(14), STR_2(5), 
  2684 ;;		 -> STR_1(11), 
  2685 ;; Auto vars:     Size  Location     Type
  2686 ;;  i               2    0[BANK0 ] int 
  2687 ;; Return value:  Size  Location     Type
  2688 ;;                  1    wreg      void 
  2689 ;; Registers used:
  2690 ;;		wreg, fsr0l, fsr0h, status,2, status,0, btemp+1, pclath, cstack
  2691 ;; Tracked objects:
  2692 ;;		On entry : 0/0
  2693 ;;		On exit  : 0/0
  2694 ;;		Unchanged: 0/0
  2695 ;; Data sizes:     COMMON   BANK0   BANK1   BANK3   BANK2
  2696 ;;      Params:         2       0       0       0       0
  2697 ;;      Locals:         0       2       0       0       0
  2698 ;;      Temps:          3       0       0       0       0
  2699 ;;      Totals:         5       2       0       0       0
  2700 ;;Total ram usage:        7 bytes
  2701 ;; Hardware stack levels used: 1
  2702 ;; Hardware stack levels required when called: 2
  2703 ;; This function calls:
  2704 ;;		_Lcd_Print_Char
  2705 ;; This function is called by:
  2706 ;;		_main
  2707 ;;		_check_gas_level
  2708 ;;		_Lcd_Print_Number
  2709 ;; This function uses a non-reentrant model
  2710 ;;
  2711                           
  2712     0349                     _Lcd_Print_String:	
  2713                           ;psect for function _Lcd_Print_String
  2714                           
  2715     0349                     l1223:	
  2716                           ;incstack = 0
  2717                           ; Regs used in _Lcd_Print_String: [wreg-fsr0h+status,2+status,0+btemp+1+pclath+cstack]
  2718                           
  2719     0349  1283               	bcf	3,5	;RP0=0, select bank0
  2720     034A  1303               	bcf	3,6	;RP1=0, select bank0
  2721     034B  01A0               	clrf	Lcd_Print_String@i
  2722     034C  01A1               	clrf	Lcd_Print_String@i+1
  2723     034D  2B72               	goto	l1229
  2724     034E                     l1225:
  2725     034E  0820               	movf	Lcd_Print_String@i,w
  2726     034F  0779               	addwf	Lcd_Print_String@a,w
  2727     0350  00FC               	movwf	??_Lcd_Print_String+1
  2728     0351  087A               	movf	Lcd_Print_String@a+1,w
  2729     0352  00FB               	movwf	??_Lcd_Print_String
  2730     0353  1803               	skipnc
  2731     0354  0AFB               	incf	??_Lcd_Print_String,f
  2732     0355  1FA0               	btfss	Lcd_Print_String@i,7
  2733     0356  2B58               	goto	u680
  2734     0357  03FB               	decf	??_Lcd_Print_String,f
  2735     0358                     u680:
  2736     0358  087B               	movf	??_Lcd_Print_String,w
  2737     0359  00FD               	movwf	??_Lcd_Print_String+2
  2738     035A  087D               	movf	??_Lcd_Print_String+2,w
  2739     035B  1283               	bcf	3,5	;RP0=0, select bank0
  2740     035C  1303               	bcf	3,6	;RP1=0, select bank0
  2741     035D  00FF               	movwf	btemp+1
  2742     035E  087C               	movf	??_Lcd_Print_String+1,w
  2743     035F  0084               	movwf	4
  2744     0360  120A  118A  2003  120A  118A  	fcall	stringtab
  2745     0365  120A  118A  2475  120A  118A  	fcall	_Lcd_Print_Char
  2746     036A                     l1227:
  2747     036A  3001               	movlw	1
  2748     036B  1283               	bcf	3,5	;RP0=0, select bank0
  2749     036C  1303               	bcf	3,6	;RP1=0, select bank0
  2750     036D  07A0               	addwf	Lcd_Print_String@i,f
  2751     036E  1803               	skipnc
  2752     036F  0AA1               	incf	Lcd_Print_String@i+1,f
  2753     0370  3000               	movlw	0
  2754     0371  07A1               	addwf	Lcd_Print_String@i+1,f
  2755     0372                     l1229:
  2756     0372  0820               	movf	Lcd_Print_String@i,w
  2757     0373  0779               	addwf	Lcd_Print_String@a,w
  2758     0374  00FC               	movwf	??_Lcd_Print_String+1
  2759     0375  087A               	movf	Lcd_Print_String@a+1,w
  2760     0376  00FB               	movwf	??_Lcd_Print_String
  2761     0377  1803               	skipnc
  2762     0378  0AFB               	incf	??_Lcd_Print_String,f
  2763     0379  1FA0               	btfss	Lcd_Print_String@i,7
  2764     037A  2B7C               	goto	u690
  2765     037B  03FB               	decf	??_Lcd_Print_String,f
  2766     037C                     u690:
  2767     037C  087B               	movf	??_Lcd_Print_String,w
  2768     037D  00FD               	movwf	??_Lcd_Print_String+2
  2769     037E  087D               	movf	??_Lcd_Print_String+2,w
  2770     037F  1283               	bcf	3,5	;RP0=0, select bank0
  2771     0380  1303               	bcf	3,6	;RP1=0, select bank0
  2772     0381  00FF               	movwf	btemp+1
  2773     0382  087C               	movf	??_Lcd_Print_String+1,w
  2774     0383  0084               	movwf	4
  2775     0384  120A  118A  2003  120A  118A  	fcall	stringtab
  2776     0389  3A00               	xorlw	0
  2777     038A  1D03               	skipz
  2778     038B  2B8D               	goto	u701
  2779     038C  2B8E               	goto	u700
  2780     038D                     u701:
  2781     038D  2B4E               	goto	l1225
  2782     038E                     u700:
  2783     038E                     l97:
  2784     038E  0008               	return
  2785     038F                     __end_of_Lcd_Print_String:
  2786                           
  2787                           	psect	text16
  2788     0475                     __ptext16:	
  2789 ;; *************** function _Lcd_Print_Char *****************
  2790 ;; Defined at:
  2791 ;;		line 116 in file "C:\Users\GNKRISHNAN\Documents\CODING\23EEE214_MCA\HEADERS\lcd.h"
  2792 ;; Parameters:    Size  Location     Type
  2793 ;;  data            1    wreg     unsigned char 
  2794 ;; Auto vars:     Size  Location     Type
  2795 ;;  data            1    4[COMMON] unsigned char 
  2796 ;;  i               2    7[COMMON] int 
  2797 ;;  i               2    5[COMMON] int 
  2798 ;;  Upper_Nibble    1    3[COMMON] unsigned char 
  2799 ;;  Lower_Nibble    1    2[COMMON] unsigned char 
  2800 ;; Return value:  Size  Location     Type
  2801 ;;                  1    wreg      void 
  2802 ;; Registers used:
  2803 ;;		wreg, status,2, status,0, btemp+1, pclath, cstack
  2804 ;; Tracked objects:
  2805 ;;		On entry : 0/0
  2806 ;;		On exit  : 0/0
  2807 ;;		Unchanged: 0/0
  2808 ;; Data sizes:     COMMON   BANK0   BANK1   BANK3   BANK2
  2809 ;;      Params:         0       0       0       0       0
  2810 ;;      Locals:         7       0       0       0       0
  2811 ;;      Temps:          1       0       0       0       0
  2812 ;;      Totals:         8       0       0       0       0
  2813 ;;Total ram usage:        8 bytes
  2814 ;; Hardware stack levels used: 1
  2815 ;; Hardware stack levels required when called: 1
  2816 ;; This function calls:
  2817 ;;		_Lcd_SetBit
  2818 ;; This function is called by:
  2819 ;;		_Lcd_Print_String
  2820 ;; This function uses a non-reentrant model
  2821 ;;
  2822                           
  2823     0475                     _Lcd_Print_Char:	
  2824                           ;psect for function _Lcd_Print_Char
  2825                           
  2826                           
  2827                           ;incstack = 0
  2828                           ; Regs used in _Lcd_Print_Char: [wreg+status,2+status,0+btemp+1+pclath+cstack]
  2829                           ;Lcd_Print_Char@data stored from wreg
  2830     0475  00F4               	movwf	Lcd_Print_Char@data
  2831     0476                     l1129:
  2832     0476  0874               	movf	Lcd_Print_Char@data,w
  2833     0477  00F2               	movwf	Lcd_Print_Char@Lower_Nibble
  2834     0478                     l1131:
  2835     0478  300F               	movlw	15
  2836     0479  05F2               	andwf	Lcd_Print_Char@Lower_Nibble,f
  2837     047A                     l1133:
  2838     047A  0874               	movf	Lcd_Print_Char@data,w
  2839     047B  00F3               	movwf	Lcd_Print_Char@Upper_Nibble
  2840     047C  30F0               	movlw	240
  2841     047D  05F3               	andwf	Lcd_Print_Char@Upper_Nibble,f
  2842     047E                     l1135:
  2843     047E  1283               	bcf	3,5	;RP0=0, select bank0
  2844     047F  1303               	bcf	3,6	;RP1=0, select bank0
  2845     0480  1508               	bsf	8,2	;volatile
  2846     0481                     l1137:
  2847     0481  0873               	movf	Lcd_Print_Char@Upper_Nibble,w
  2848     0482  00F1               	movwf	??_Lcd_Print_Char
  2849     0483  3004               	movlw	4
  2850     0484                     u615:
  2851     0484  1003               	clrc
  2852     0485  0CF1               	rrf	??_Lcd_Print_Char,f
  2853     0486  3EFF               	addlw	-1
  2854     0487  1D03               	skipz
  2855     0488  2C84               	goto	u615
  2856     0489  0871               	movf	??_Lcd_Print_Char,w
  2857     048A  120A  118A  2252  120A  118A  	fcall	_Lcd_SetBit
  2858     048F                     l1139:
  2859     048F  1283               	bcf	3,5	;RP0=0, select bank0
  2860     0490  1303               	bcf	3,6	;RP1=0, select bank0
  2861     0491  1588               	bsf	8,3	;volatile
  2862     0492                     l1141:
  2863     0492  3033               	movlw	51
  2864     0493  00F5               	movwf	Lcd_Print_Char@i
  2865     0494  3082               	movlw	130
  2866     0495  00F6               	movwf	Lcd_Print_Char@i+1
  2867     0496                     l87:
  2868     0496  0000               	nop
  2869     0497                     l1147:
  2870     0497  30FF               	movlw	255
  2871     0498  07F5               	addwf	Lcd_Print_Char@i,f
  2872     0499  1803               	skipnc
  2873     049A  0AF6               	incf	Lcd_Print_Char@i+1,f
  2874     049B  30FF               	movlw	255
  2875     049C  07F6               	addwf	Lcd_Print_Char@i+1,f
  2876     049D                     l1149:
  2877     049D  0876               	movf	Lcd_Print_Char@i+1,w
  2878     049E  3A80               	xorlw	128
  2879     049F  00FF               	movwf	btemp+1
  2880     04A0  3080               	movlw	128
  2881     04A1  027F               	subwf	btemp+1,w
  2882     04A2  1D03               	skipz
  2883     04A3  2CA6               	goto	u625
  2884     04A4  3001               	movlw	1
  2885     04A5  0275               	subwf	Lcd_Print_Char@i,w
  2886     04A6                     u625:
  2887     04A6  1C03               	skipc
  2888     04A7  2CA9               	goto	u621
  2889     04A8  2CAA               	goto	u620
  2890     04A9                     u621:
  2891     04A9  2C96               	goto	l87
  2892     04AA                     u620:
  2893     04AA                     l88:
  2894     04AA  1283               	bcf	3,5	;RP0=0, select bank0
  2895     04AB  1303               	bcf	3,6	;RP1=0, select bank0
  2896     04AC  1188               	bcf	8,3	;volatile
  2897     04AD                     l1151:
  2898     04AD  0872               	movf	Lcd_Print_Char@Lower_Nibble,w
  2899     04AE  120A  118A  2252  120A  118A  	fcall	_Lcd_SetBit
  2900     04B3                     l1153:
  2901     04B3  1283               	bcf	3,5	;RP0=0, select bank0
  2902     04B4  1303               	bcf	3,6	;RP1=0, select bank0
  2903     04B5  1588               	bsf	8,3	;volatile
  2904     04B6                     l1155:
  2905     04B6  3033               	movlw	51
  2906     04B7  00F7               	movwf	Lcd_Print_Char@i_169
  2907     04B8  3082               	movlw	130
  2908     04B9  00F8               	movwf	Lcd_Print_Char@i_169+1
  2909     04BA                     l89:
  2910     04BA  0000               	nop
  2911     04BB                     l1161:
  2912     04BB  30FF               	movlw	255
  2913     04BC  07F7               	addwf	Lcd_Print_Char@i_169,f
  2914     04BD  1803               	skipnc
  2915     04BE  0AF8               	incf	Lcd_Print_Char@i_169+1,f
  2916     04BF  30FF               	movlw	255
  2917     04C0  07F8               	addwf	Lcd_Print_Char@i_169+1,f
  2918     04C1                     l1163:
  2919     04C1  0878               	movf	Lcd_Print_Char@i_169+1,w
  2920     04C2  3A80               	xorlw	128
  2921     04C3  00FF               	movwf	btemp+1
  2922     04C4  3080               	movlw	128
  2923     04C5  027F               	subwf	btemp+1,w
  2924     04C6  1D03               	skipz
  2925     04C7  2CCA               	goto	u635
  2926     04C8  3001               	movlw	1
  2927     04C9  0277               	subwf	Lcd_Print_Char@i_169,w
  2928     04CA                     u635:
  2929     04CA  1C03               	skipc
  2930     04CB  2CCD               	goto	u631
  2931     04CC  2CCE               	goto	u630
  2932     04CD                     u631:
  2933     04CD  2CBA               	goto	l89
  2934     04CE                     u630:
  2935     04CE                     l90:
  2936     04CE  1283               	bcf	3,5	;RP0=0, select bank0
  2937     04CF  1303               	bcf	3,6	;RP1=0, select bank0
  2938     04D0  1188               	bcf	8,3	;volatile
  2939     04D1                     l91:
  2940     04D1  0008               	return
  2941     04D2                     __end_of_Lcd_Print_Char:
  2942                           
  2943                           	psect	text17
  2944     01F0                     __ptext17:	
  2945 ;; *************** function _Lcd_Clear *****************
  2946 ;; Defined at:
  2947 ;;		line 71 in file "C:\Users\GNKRISHNAN\Documents\CODING\23EEE214_MCA\HEADERS\lcd.h"
  2948 ;; Parameters:    Size  Location     Type
  2949 ;;		None
  2950 ;; Auto vars:     Size  Location     Type
  2951 ;;		None
  2952 ;; Return value:  Size  Location     Type
  2953 ;;                  1    wreg      void 
  2954 ;; Registers used:
  2955 ;;		wreg, status,2, status,0, pclath, cstack
  2956 ;; Tracked objects:
  2957 ;;		On entry : 0/0
  2958 ;;		On exit  : 0/0
  2959 ;;		Unchanged: 0/0
  2960 ;; Data sizes:     COMMON   BANK0   BANK1   BANK3   BANK2
  2961 ;;      Params:         0       0       0       0       0
  2962 ;;      Locals:         0       0       0       0       0
  2963 ;;      Temps:          0       0       0       0       0
  2964 ;;      Totals:         0       0       0       0       0
  2965 ;;Total ram usage:        0 bytes
  2966 ;; Hardware stack levels used: 1
  2967 ;; Hardware stack levels required when called: 2
  2968 ;; This function calls:
  2969 ;;		_Lcd_Cmd
  2970 ;; This function is called by:
  2971 ;;		_main
  2972 ;; This function uses a non-reentrant model
  2973 ;;
  2974                           
  2975     01F0                     _Lcd_Clear:	
  2976                           ;psect for function _Lcd_Clear
  2977                           
  2978     01F0                     l1327:	
  2979                           ;incstack = 0
  2980                           ; Regs used in _Lcd_Clear: [wreg+status,2+status,0+pclath+cstack]
  2981                           
  2982                           
  2983                           ;C:\Users\GNKRISHNAN\Documents\CODING\23EEE214_MCA\HEADERS\lcd.h: 73:   Lcd_Cmd(0x06);
  2984     01F0  3000               	movlw	0
  2985     01F1  120A  118A  2238  120A  118A  	fcall	_Lcd_Cmd
  2986                           
  2987                           ;C:\Users\GNKRISHNAN\Documents\CODING\23EEE214_MCA\HEADERS\lcd.h: 74: }
  2988     01F6  3001               	movlw	1
  2989     01F7  120A  118A  2238  120A  118A  	fcall	_Lcd_Cmd
  2990     01FC                     l73:
  2991     01FC  0008               	return
  2992     01FD                     __end_of_Lcd_Clear:
  2993                           
  2994                           	psect	text18
  2995     0238                     __ptext18:	
  2996 ;; *************** function _Lcd_Cmd *****************
  2997 ;; Defined at:
  2998 ;;		line 62 in file "C:\Users\GNKRISHNAN\Documents\CODING\23EEE214_MCA\HEADERS\lcd.h"
  2999 ;; Parameters:    Size  Location     Type
  3000 ;;  a               1    wreg     unsigned char 
  3001 ;; Auto vars:     Size  Location     Type
  3002 ;;  a               1    3[COMMON] unsigned char 
  3003 ;; Return value:  Size  Location     Type
  3004 ;;                  1    wreg      void 
  3005 ;; Registers used:
  3006 ;;		wreg, status,2, status,0, pclath, cstack
  3007 ;; Tracked objects:
  3008 ;;		On entry : 0/0
  3009 ;;		On exit  : 0/0
  3010 ;;		Unchanged: 0/0
  3011 ;; Data sizes:     COMMON   BANK0   BANK1   BANK3   BANK2
  3012 ;;      Params:         0       0       0       0       0
  3013 ;;      Locals:         1       0       0       0       0
  3014 ;;      Temps:          2       0       0       0       0
  3015 ;;      Totals:         3       0       0       0       0
  3016 ;;Total ram usage:        3 bytes
  3017 ;; Hardware stack levels used: 1
  3018 ;; Hardware stack levels required when called: 1
  3019 ;; This function calls:
  3020 ;;		_Lcd_SetBit
  3021 ;; This function is called by:
  3022 ;;		_Lcd_Clear
  3023 ;;		_Lcd_Set_Cursor
  3024 ;;		_Lcd_Start
  3025 ;; This function uses a non-reentrant model
  3026 ;;
  3027                           
  3028     0238                     _Lcd_Cmd:	
  3029                           ;psect for function _Lcd_Cmd
  3030                           
  3031                           
  3032                           ;incstack = 0
  3033                           ; Regs used in _Lcd_Cmd: [wreg+status,2+status,0+pclath+cstack]
  3034                           ;Lcd_Cmd@a stored from wreg
  3035     0238  00F3               	movwf	Lcd_Cmd@a
  3036     0239                     l1119:
  3037                           
  3038                           ;C:\Users\GNKRISHNAN\Documents\CODING\23EEE214_MCA\HEADERS\lcd.h: 62:   Lcd_Cmd(0x03);;C
      +                          :\Users\GNKRISHNAN\Documents\CODING\23EEE214_MCA\HEADERS\lcd.h: 63:  _delay((unsigned lo
      +                          ng)((5)*(20000000/4000.0)));;C:\Users\GNKRISHNAN\Documents\CODING\23EEE214_MCA\HEADERS\l
      +                          cd.h: 64:   Lcd_Cmd(0x03);
  3039     0239  1283               	bcf	3,5	;RP0=0, select bank0
  3040     023A  1303               	bcf	3,6	;RP1=0, select bank0
  3041     023B  1108               	bcf	8,2	;volatile
  3042     023C                     l1121:
  3043                           
  3044                           ;C:\Users\GNKRISHNAN\Documents\CODING\23EEE214_MCA\HEADERS\lcd.h: 65:  _delay((unsigned 
      +                          long)((11)*(20000000/4000.0)));
  3045     023C  0873               	movf	Lcd_Cmd@a,w
  3046     023D  120A  118A  2252  120A  118A  	fcall	_Lcd_SetBit
  3047     0242                     l1123:
  3048                           
  3049                           ;C:\Users\GNKRISHNAN\Documents\CODING\23EEE214_MCA\HEADERS\lcd.h: 66:   Lcd_Cmd(0x03);
  3050     0242  1283               	bcf	3,5	;RP0=0, select bank0
  3051     0243  1303               	bcf	3,6	;RP1=0, select bank0
  3052     0244  1588               	bsf	8,3	;volatile
  3053     0245                     l1125:
  3054                           
  3055                           ;C:\Users\GNKRISHNAN\Documents\CODING\23EEE214_MCA\HEADERS\lcd.h: 67:   Lcd_Cmd(0x02);
  3056     0245  301A               	movlw	26
  3057     0246  00F2               	movwf	??_Lcd_Cmd+1
  3058     0247  30F8               	movlw	248
  3059     0248  00F1               	movwf	??_Lcd_Cmd
  3060     0249                     u1187:
  3061     0249  0BF1               	decfsz	??_Lcd_Cmd,f
  3062     024A  2A49               	goto	u1187
  3063     024B  0BF2               	decfsz	??_Lcd_Cmd+1,f
  3064     024C  2A49               	goto	u1187
  3065     024D  0000               	nop
  3066     024E                     l1127:
  3067                           
  3068                           ;C:\Users\GNKRISHNAN\Documents\CODING\23EEE214_MCA\HEADERS\lcd.h: 68:   Lcd_Cmd(0x02);
  3069     024E  1283               	bcf	3,5	;RP0=0, select bank0
  3070     024F  1303               	bcf	3,6	;RP1=0, select bank0
  3071     0250  1188               	bcf	8,3	;volatile
  3072     0251                     l70:
  3073     0251  0008               	return
  3074     0252                     __end_of_Lcd_Cmd:
  3075                           
  3076                           	psect	text19
  3077     0252                     __ptext19:	
  3078 ;; *************** function _Lcd_SetBit *****************
  3079 ;; Defined at:
  3080 ;;		line 39 in file "C:\Users\GNKRISHNAN\Documents\CODING\23EEE214_MCA\HEADERS\lcd.h"
  3081 ;; Parameters:    Size  Location     Type
  3082 ;;  data_bit        1    wreg     unsigned char 
  3083 ;; Auto vars:     Size  Location     Type
  3084 ;;  data_bit        1    0[COMMON] unsigned char 
  3085 ;; Return value:  Size  Location     Type
  3086 ;;                  1    wreg      void 
  3087 ;; Registers used:
  3088 ;;		wreg
  3089 ;; Tracked objects:
  3090 ;;		On entry : 0/0
  3091 ;;		On exit  : 0/0
  3092 ;;		Unchanged: 0/0
  3093 ;; Data sizes:     COMMON   BANK0   BANK1   BANK3   BANK2
  3094 ;;      Params:         0       0       0       0       0
  3095 ;;      Locals:         1       0       0       0       0
  3096 ;;      Temps:          0       0       0       0       0
  3097 ;;      Totals:         1       0       0       0       0
  3098 ;;Total ram usage:        1 bytes
  3099 ;; Hardware stack levels used: 1
  3100 ;; This function calls:
  3101 ;;		Nothing
  3102 ;; This function is called by:
  3103 ;;		_Lcd_Cmd
  3104 ;;		_Lcd_Start
  3105 ;;		_Lcd_Print_Char
  3106 ;; This function uses a non-reentrant model
  3107 ;;
  3108                           
  3109     0252                     _Lcd_SetBit:	
  3110                           ;psect for function _Lcd_SetBit
  3111                           
  3112                           
  3113                           ;incstack = 0
  3114                           ; Regs used in _Lcd_SetBit: [wreg]
  3115                           ;Lcd_SetBit@data_bit stored from wreg
  3116     0252  00F0               	movwf	Lcd_SetBit@data_bit
  3117     0253                     l1109:
  3118                           
  3119                           ;C:\Users\GNKRISHNAN\Documents\CODING\23EEE214_MCA\HEADERS\lcd.h: 39:  char temp,z,y;;C:
      +                          \Users\GNKRISHNAN\Documents\CODING\23EEE214_MCA\HEADERS\lcd.h: 40:  if(a== 1);C:\Users\G
      +                          NKRISHNAN\Documents\CODING\23EEE214_MCA\HEADERS\lcd.h: 41:  {
  3120     0253  1C70               	btfss	Lcd_SetBit@data_bit,0
  3121     0254  2A56               	goto	u571
  3122     0255  2A57               	goto	u570
  3123     0256                     u571:
  3124     0256  2A5B               	goto	l59
  3125     0257                     u570:
  3126     0257                     l1111:
  3127                           
  3128                           ;C:\Users\GNKRISHNAN\Documents\CODING\23EEE214_MCA\HEADERS\lcd.h: 42:    temp = 0x80 + b
      +                           - 1;
  3129     0257  1283               	bcf	3,5	;RP0=0, select bank0
  3130     0258  1303               	bcf	3,6	;RP1=0, select bank0
  3131     0259  1608               	bsf	8,4	;volatile
  3132     025A  2A5E               	goto	l60
  3133     025B                     l59:	
  3134                           ;C:\Users\GNKRISHNAN\Documents\CODING\23EEE214_MCA\HEADERS\lcd.h: 43:   z = temp>>4;
  3135                           
  3136                           
  3137                           ;C:\Users\GNKRISHNAN\Documents\CODING\23EEE214_MCA\HEADERS\lcd.h: 44:   y = temp & 0x0F;
  3138     025B  1283               	bcf	3,5	;RP0=0, select bank0
  3139     025C  1303               	bcf	3,6	;RP1=0, select bank0
  3140     025D  1208               	bcf	8,4	;volatile
  3141     025E                     l60:
  3142                           
  3143                           ;C:\Users\GNKRISHNAN\Documents\CODING\23EEE214_MCA\HEADERS\lcd.h: 46:   Lcd_Cmd(y);
  3144     025E  1CF0               	btfss	Lcd_SetBit@data_bit,1
  3145     025F  2A61               	goto	u581
  3146     0260  2A62               	goto	u580
  3147     0261                     u581:
  3148     0261  2A64               	goto	l61
  3149     0262                     u580:
  3150     0262                     l1113:
  3151                           
  3152                           ;C:\Users\GNKRISHNAN\Documents\CODING\23EEE214_MCA\HEADERS\lcd.h: 47:  }
  3153     0262  1688               	bsf	8,5	;volatile
  3154     0263  2A65               	goto	l62
  3155     0264                     l61:	
  3156                           ;C:\Users\GNKRISHNAN\Documents\CODING\23EEE214_MCA\HEADERS\lcd.h: 48:  else if(a== 2)
  3157                           
  3158                           
  3159                           ;C:\Users\GNKRISHNAN\Documents\CODING\23EEE214_MCA\HEADERS\lcd.h: 49:  {
  3160     0264  1288               	bcf	8,5	;volatile
  3161     0265                     l62:
  3162                           
  3163                           ;C:\Users\GNKRISHNAN\Documents\CODING\23EEE214_MCA\HEADERS\lcd.h: 51:   z = temp>>4;
  3164     0265  1D70               	btfss	Lcd_SetBit@data_bit,2
  3165     0266  2A68               	goto	u591
  3166     0267  2A69               	goto	u590
  3167     0268                     u591:
  3168     0268  2A6B               	goto	l63
  3169     0269                     u590:
  3170     0269                     l1115:
  3171                           
  3172                           ;C:\Users\GNKRISHNAN\Documents\CODING\23EEE214_MCA\HEADERS\lcd.h: 52:   y = temp & 0x0F;
  3173     0269  1708               	bsf	8,6	;volatile
  3174     026A  2A6C               	goto	l64
  3175     026B                     l63:	
  3176                           ;C:\Users\GNKRISHNAN\Documents\CODING\23EEE214_MCA\HEADERS\lcd.h: 53:   Lcd_Cmd(z);
  3177                           
  3178                           
  3179                           ;C:\Users\GNKRISHNAN\Documents\CODING\23EEE214_MCA\HEADERS\lcd.h: 54:   Lcd_Cmd(y);
  3180     026B  1308               	bcf	8,6	;volatile
  3181     026C                     l64:
  3182                           
  3183                           ;C:\Users\GNKRISHNAN\Documents\CODING\23EEE214_MCA\HEADERS\lcd.h: 56: }
  3184     026C  1DF0               	btfss	Lcd_SetBit@data_bit,3
  3185     026D  2A6F               	goto	u601
  3186     026E  2A70               	goto	u600
  3187     026F                     u601:
  3188     026F  2A72               	goto	l65
  3189     0270                     u600:
  3190     0270                     l1117:
  3191                           
  3192                           ;C:\Users\GNKRISHNAN\Documents\CODING\23EEE214_MCA\HEADERS\lcd.h: 57: 
  3193     0270  1788               	bsf	8,7	;volatile
  3194     0271  2A73               	goto	l67
  3195     0272                     l65:	
  3196                           ;C:\Users\GNKRISHNAN\Documents\CODING\23EEE214_MCA\HEADERS\lcd.h: 58: void Lcd_Start()
  3197                           
  3198                           
  3199                           ;C:\Users\GNKRISHNAN\Documents\CODING\23EEE214_MCA\HEADERS\lcd.h: 59: {
  3200     0272  1388               	bcf	8,7	;volatile
  3201     0273                     l67:
  3202     0273  0008               	return
  3203     0274                     __end_of_Lcd_SetBit:
  3204     0002                     ___latbits      equ	2
  3205     007E                     btemp           set	126	;btemp
  3206     007E                     wtemp0          set	126
  3207                           
  3208                           	psect	config
  3209                           
  3210                           ;Config register CONFIG @ 0x2007
  3211                           ;	Oscillator Selection bits
  3212                           ;	FOSC = HS, HS oscillator
  3213                           ;	Watchdog Timer Enable bit
  3214                           ;	WDTE = OFF, WDT disabled
  3215                           ;	Power-up Timer Enable bit
  3216                           ;	PWRTE = ON, PWRT enabled
  3217                           ;	Brown-out Reset Enable bit
  3218                           ;	BOREN = ON, BOR enabled
  3219                           ;	Low-Voltage (Single-Supply) In-Circuit Serial Programming Enable bit
  3220                           ;	LVP = OFF, RB3 is digital I/O, HV on MCLR must be used for programming
  3221                           ;	Data EEPROM Memory Code Protection bit
  3222                           ;	CPD = OFF, Data EEPROM code protection off
  3223                           ;	Flash Program Memory Write Enable bits
  3224                           ;	WRT = OFF, Write protection off; all program memory may be written to by EECON control
  3225                           ;	In-Circuit Debugger Mode bit
  3226                           ;	DEBUG = 0x1, unprogrammed default
  3227                           ;	Flash Program Memory Code Protection bit
  3228                           ;	CP = OFF, Code protection off
  3229     2007                     	org	8199
  3230     2007  3F72               	dw	16242

Data Sizes:
    Strings     41
    Constant    20
    Data        0
    BSS         2
    Persistent  0
    Stack       0

Auto Spaces:
    Space          Size  Autos    Used
    COMMON           14     14      14
    BANK0            80     17      19
    BANK1            80      0       0
    BANK3            96      0       0
    BANK2            96      0       0

Pointer List with Targets:

    Lcd_Print_String@a	PTR unsigned char  size(2) Largest target is 16
		 -> Lcd_Print_Number@buffer(BANK0[5]), STR_1(CODE[11]), STR_2(CODE[5]), STR_3(CODE[14]), 
		 -> STR_4(CODE[16]), 


Critical Paths under _main in COMMON

    _main->_Lcd_Print_String
    _read_adc->___lldiv
    _init_system->_Lcd_Start
    _Lcd_Start->_Lcd_Cmd
    _check_gas_level->_Lcd_Print_String
    _pwm_set_duty->___lwdiv
    _Lcd_Set_Cursor->_Lcd_Cmd
    _calculate_lpg_ppm->___lwdiv
    _Lcd_Print_Number->_Lcd_Print_String
    ___lwdiv->___wmul
    _Lcd_Print_String->_Lcd_Print_Char
    _Lcd_Print_Char->_Lcd_SetBit
    _Lcd_Clear->_Lcd_Cmd
    _Lcd_Cmd->_Lcd_SetBit

Critical Paths under _main in BANK0

    _main->_read_adc
    _init_pwm->_pwm_set_duty
    _check_gas_level->_pwm_set_duty
    _Lcd_Print_Number->_Lcd_Print_String

Critical Paths under _main in BANK1

    None.

Critical Paths under _main in BANK3

    None.

Critical Paths under _main in BANK2

    None.

Call Graph Tables:

 ---------------------------------------------------------------------------------
 (Depth) Function   	        Calls       Base Space   Used Autos Params    Refs
 ---------------------------------------------------------------------------------
 (0) _main                                                 4     4      0    4483
                                             13 BANK0      4     4      0
                          _Lcd_Clear
                   _Lcd_Print_Number
                   _Lcd_Print_String
                     _Lcd_Set_Cursor
                  _calculate_lpg_ppm
                    _check_gas_level
                           _delay_ms
                           _init_pwm
                        _init_system
                           _read_adc
 ---------------------------------------------------------------------------------
 (1) _read_adc                                            13    11      2     263
                                              0 BANK0     13    11      2
                            ___lldiv
 ---------------------------------------------------------------------------------
 (2) ___lldiv                                             14     6      8     164
                                              0 COMMON    14     6      8
 ---------------------------------------------------------------------------------
 (1) _init_system                                          0     0      0     307
                          _Lcd_Start
 ---------------------------------------------------------------------------------
 (2) _Lcd_Start                                            4     4      0     307
                                              4 COMMON     2     2      0
                            _Lcd_Cmd
                         _Lcd_SetBit
 ---------------------------------------------------------------------------------
 (1) _init_pwm                                             0     0      0      92
                       _pwm_set_duty
 ---------------------------------------------------------------------------------
 (1) _delay_ms                                             4     2      2      23
                                              0 COMMON     4     2      2
 ---------------------------------------------------------------------------------
 (1) _check_gas_level                                      5     3      2    1252
                                              5 BANK0      5     3      2
                   _Lcd_Print_String
                     _Lcd_Set_Cursor
                            ___lwdiv
                             ___wmul
                       _pwm_set_duty
 ---------------------------------------------------------------------------------
 (2) _pwm_set_duty                                         5     3      2      92
                                              0 BANK0      5     3      2
                            ___lwdiv (ARG)
                             ___wmul (ARG)
 ---------------------------------------------------------------------------------
 (2) _Lcd_Set_Cursor                                       6     5      1     436
                                              4 COMMON     6     5      1
                            _Lcd_Cmd
 ---------------------------------------------------------------------------------
 (1) _calculate_lpg_ppm                                   10     8      2     560
                                              0 BANK0     10     8      2
                            ___lwdiv
                             ___wmul
 ---------------------------------------------------------------------------------
 (2) ___wmul                                               6     2      4      98
                                              0 COMMON     6     2      4
 ---------------------------------------------------------------------------------
 (1) _Lcd_Print_Number                                    10     8      2     927
                                              2 BANK0     10     8      2
                   _Lcd_Print_String
                            ___lwdiv
                            ___lwmod
 ---------------------------------------------------------------------------------
 (2) ___lwmod                                              5     1      4     161
                                              0 COMMON     5     1      4
 ---------------------------------------------------------------------------------
 (2) ___lwdiv                                              7     3      4     172
                                              6 COMMON     7     3      4
                             ___wmul (ARG)
 ---------------------------------------------------------------------------------
 (2) _Lcd_Print_String                                     7     5      2     409
                                              9 COMMON     5     3      2
                                              0 BANK0      2     2      0
                     _Lcd_Print_Char
 ---------------------------------------------------------------------------------
 (3) _Lcd_Print_Char                                       8     8      0     314
                                              1 COMMON     8     8      0
                         _Lcd_SetBit
 ---------------------------------------------------------------------------------
 (1) _Lcd_Clear                                            0     0      0     145
                            _Lcd_Cmd
 ---------------------------------------------------------------------------------
 (3) _Lcd_Cmd                                              3     3      0     145
                                              1 COMMON     3     3      0
                         _Lcd_SetBit
 ---------------------------------------------------------------------------------
 (3) _Lcd_SetBit                                           1     1      0     116
                                              0 COMMON     1     1      0
 ---------------------------------------------------------------------------------
 Estimated maximum stack depth 3
 ---------------------------------------------------------------------------------

 Call Graph Graphs:

 _main (ROOT)
   _Lcd_Clear
     _Lcd_Cmd
       _Lcd_SetBit
   _Lcd_Print_Number
     _Lcd_Print_String
       _Lcd_Print_Char
         _Lcd_SetBit
     ___lwdiv
       ___wmul (ARG)
     ___lwmod
   _Lcd_Print_String
   _Lcd_Set_Cursor
     _Lcd_Cmd
   _calculate_lpg_ppm
     ___lwdiv
     ___wmul
   _check_gas_level
     _Lcd_Print_String
     _Lcd_Set_Cursor
     ___lwdiv
     ___wmul
     _pwm_set_duty
       ___lwdiv (ARG)
       ___wmul (ARG)
   _delay_ms
   _init_pwm
     _pwm_set_duty
   _init_system
     _Lcd_Start
       _Lcd_Cmd
       _Lcd_SetBit
   _read_adc
     ___lldiv

Address spaces:
Name               Size   Autos  Total    Usage
BITCOMMON           14      0       0      0.0%
BITBANK0            80      0       0      0.0%
BITBANK1            80      0       0      0.0%
BITBANK3            96      0       0      0.0%
BITBANK2            96      0       0      0.0%
COMMON              14     14      14    100.0%
BANK0               80     17      19     23.8%
BANK1               80      0       0      0.0%
BANK3               96      0       0      0.0%
BANK2               96      0       0      0.0%
STACK                0      0       0      0.0%
DATA                 0      0      33      0.0%


Microchip Technology PIC Macro Assembler V2.50 build 20240725155939 
Symbol Table                                                                                   Sat Mar 29 23:37:39 2025

                           pc 0002                            l60 025E                            l61 0264  
                          l62 0265                            l70 0251                            l63 026B  
                          l64 026C                            l65 0272                            l73 01FC  
                          l90 04CE                            l67 0273                            l59 025B  
                          l91 04D1                            l84 0474                            l87 0496  
                          l79 03D6                            l88 04AA                            l89 04BA  
                          l97 038E                            fsr 0004           ___wmul@multiplicand 0072  
                         l112 020C                           l131 07F7                           l115 021F  
                         l124 0552                           l119 02CE                           l151 0697  
                         l127 05AA                           l160 0237                           l154 06B3  
                         l251 0280                           l165 041F                           l253 0298  
                         l531 0348                           l541 0306                           l287 0535  
                         _RD2 0042                           _RD3 0043                           _RD4 0044  
                         _RD5 0045                           _RD6 0046                           _RD7 0047  
                         _PR2 0092                           u600 0270                           u601 026F  
                         u620 04AA                           u700 038E                           u621 04A9  
                         u701 038D                           u630 04CE                           u710 02A4  
                         u631 04CD                           u615 0484                           u711 02A3  
                         u720 027A                           u640 0395                           u800 050F  
                         u625 04A6                           u721 0279                           u641 0394  
                         u801 050E                           u570 0257                           u571 0256  
                         u635 04CA                           u580 0262                           u900 02D5  
                         u660 03B9                           u820 052D                           u581 0261  
                         u901 02D4                           u661 03B8                           u821 052C  
                         u805 050B                           u590 0269                           u830 030F  
                         u750 0294                           u591 0268                           u831 030E  
                         u751 0293                           u735 0281                           u655 039B  
                         u815 051F                           u680 0358                           u920 02E5  
                         u760 04E2                           u921 02E4                           u745 0288  
                         u761 04E1                           u690 037C                           u850 031F  
                         u930 02EF                           u851 031E                           u931 02EE  
                         u915 02D9                           u675 03BF                           u780 04F4  
                         u845 0313                           u781 04F3                           u870 0330  
                         u950 0302                           u871 032F                           u951 0301  
                         u935 02EB                           u775 04E7                           u865 0320  
                         u945 02F6                           u890 0344                           u970 0556  
                         u891 0343                           u875 032C                           u795 04F6  
                         u971 0555                           u885 0338                           u981 056C  
                         u965 0548                           u990 058D                           u982 0573  
                         u991 058C                           u983 057A                           u995 0589  
                         fsr0 0004                           indf 0000                  _pwm_set_duty 0299  
             _check_gas_level 0626                          l1111 0257                          l1113 0262  
                        l1121 023C                          l1201 0426                          l1115 0269  
                        l1123 0242                          l1131 0478                          l1211 0450  
                        l1203 042C                          l1117 0270                          l1109 0253  
                        l1125 0245                          l1141 0492                          l1133 047A  
                        l1301 0344                          l1221 046E                          l1213 0456  
                        l1205 0435                          l1127 024E                          l1119 0239  
                        l1151 04AD                          l1135 047E                          l1223 0349  
                        l1311 02DF                          l1231 0299                          l1215 045C  
                        l1207 0444                          l1161 04BB                          l1153 04B3  
                        l1137 0481                          l1129 0476                          l1225 034E  
                        l1321 02FC                          l1313 02E1                          l1305 02CF  
                        l1241 0274                          l1401 0741                          l1233 02A4  
                        l1217 0462                          l1209 044A                          l1163 04C1  
                        l1155 04B6                          l1147 0497                          l1139 048F  
                        l1227 036A                          l1315 02E5                          l1307 02D5  
                        l1323 0302                          l1251 0294                          l1243 0276  
                        l1411 0762                          l1403 074A                          l1171 03A4  
                        l1235 02A8                          l1219 0468                          l1331 0207  
                        l1149 049D                          l1229 0372                          l1317 02EF  
                        l1309 02D8                          l1245 027A                          l1181 03C6  
                        l1173 03A6                          l1165 0390                          l1237 02B4  
                        l1333 020D                          l1261 04F0                          l1501 05FD  
                        l1327 01F0                          l1319 02F5                          l1247 0287  
                        l1183 03C8                          l1175 03AC                          l1167 0395  
                        l1239 02BD                          l1335 0217                          l1191 0426  
                        l1271 051E                          l1263 04F4                          l1255 04D2  
                        l1351 0580                          l1503 0606                          l1281 0309  
                        l1249 028E                          l1441 07B9                          l1433 07A1  
                        l1425 0789                          l1417 0771                          l1409 0759  
                        l1185 03CA                          l1169 03A2                          l1177 03B3  
                        l1361 0632                          l1193 0426                          l1329 01FD  
                        l1273 0527                          l1265 04FD                          l1257 04E2  
                        l1353 058D                          l1345 0543                          l1337 0539  
                        l1505 060E                          l1291 031F                          l1283 030F  
                        l1451 07DA                          l1443 07C2                          l1435 07AA  
                        l1427 0792                          l1419 077A                          l1187 03D0  
                        l1179 03B9                          l1371 0685                          l1363 0641  
                        l1267 050F                          l1259 04E5                          l1275 052D  
                        l1347 0551                          l1339 0541                          l1507 0619  
                        l1293 0330                          l1285 0312                          l1461 03D7  
                        l1381 06AA                          l1373 0688                          l1365 0666  
                        l1357 0626                          l1189 0420                          l1269 051D  
                        l1349 0556                          l1295 0336                          l1287 0319  
                        l1279 0307                          l1471 0413                          l1463 03DD  
                        l1383 06B4                          l1375 0698                          l1367 0674  
                        l1359 0631                          l1297 0337                          l1289 031B  
                        l1465 03DE                          l1457 07E9                          l1449 07D1  
                        l1393 0729                          l1385 0711                          l1377 069A  
                        l1369 067C                          l1473 0220                          l1481 05AE  
                        l1299 033E                          l1467 03F8                          l1395 0732  
                        l1387 071A                          l1379 06A2                          l1475 0221  
                        l1491 05C6                          l1483 05AF                          l1469 040D  
                        l1477 0229                          l1493 05CF                          l1485 05B4  
                        l1495 05DB                          l1487 05B9                          l1479 05AB  
                        l1497 05E4                          l1489 05BE                          l1499 05F5  
                        STR_1 0045                          STR_2 0032                          STR_3 0037  
                        STR_4 0027                          u1000 0631                          u1001 0630  
                        u1010 0641                          u1011 0640                          u1100 07DA  
                        u1020 071A                          u1101 07D9                          u1021 0719  
                        u1110 0413                          u1030 0732                          u1111 0412  
                        u1031 0731                          u1040 074A                          u1120 0237  
                        u1041 0749                          u1121 0236                          u1050 0762  
                        u1051 0761                          u1060 077A                          u1061 0779  
                        u1070 0792                          u1071 0791                          u1080 07AA  
                        u1081 07A9                          u1137 0430                          u1090 07C2  
                        u1091 07C1                          u1147 043F                          u1157 0225  
                        u1167 066E                          u1177 0690                          u1187 0249  
                        _main 05AB                          btemp 007E                          start 0000  
            pwm_set_duty@duty 0020            Lcd_Print_Char@data 0074               __end_of_Lcd_Cmd 0252  
                  _Lcd_SetBit 0252                         ?_main 0070               __end_of___lldiv 0536  
                       _T2CON 0012               __end_of___lwdiv 0349               __end_of___lwmod 0307  
                       _TRISD 0088           calculate_lpg_ppm@rs 0024                  ?_init_system 0070  
                       pclath 000A           Lcd_Print_Char@i_169 0077                         status 0003  
                       wtemp0 007E               __initialization 07F8                  __end_of_main 0626  
  calculate_lpg_ppm@adc_value 0020       __end_of_check_gas_level 06B4                        ??_main 007E  
               main@gas_value 002F                        _ADCON0 001F                        _ADCON1 009F  
                      _ADRESH 001E                        _ADRESL 009E                        _CCPR1L 0015  
                   ??_Lcd_Cmd 0071              __end_of_delay_ms 0238                        ___wmul 0274  
                   ??___lldiv 0078                     ??___lwdiv 007A                     ??___lwmod 0074  
                 ?_Lcd_SetBit 0070              __end_of_read_adc 05AB              __end_of_init_pwm 0220  
                 read_adc@sum 0027               Lcd_Set_Cursor@a 0076               Lcd_Set_Cursor@b 0074  
             Lcd_Set_Cursor@y 0078               Lcd_Set_Cursor@z 0077       __end_of__initialization 07FC  
           __end_of_Lcd_Clear 01FD             __end_of_Lcd_Start 0475                __pcstackCOMMON 0070  
            ?_check_gas_level 0025                _Lcd_Set_Cursor 038F           Lcd_Print_Number@num 0022  
                  __pbssBANK0 0031              _Lcd_Print_Number 03D7              _Lcd_Print_String 0349  
              _Lcd_Print_Char 0475                    __pmaintext 05AB                       ?___wmul 0070  
                     _CCP1CON 0017            Lcd_SetBit@data_bit 0070        __end_of_Lcd_Set_Cursor 03D7  
           _calculate_lpg_ppm 06B4            ?_calculate_lpg_ppm 0020                     ?_delay_ms 0070  
         ??_calculate_lpg_ppm 0022                    __stringtab 0003               Lcd_Print_Char@i 0075  
                     _Lcd_Cmd 0238        __end_of_Lcd_Print_Char 04D2                     ?_read_adc 0020  
                   ?_init_pwm 0070        Lcd_Print_Number@buffer 0025                       ___lldiv 04D2  
                     ___lwdiv 0307     __end_of_calculate_lpg_ppm 07F8                       ___lwmod 02CF  
             ?_Lcd_Set_Cursor 0074                       __ptext1 0536                       __ptext2 04D2  
                     __ptext3 01FD                       __ptext4 0420                       __ptext5 020D  
                     __ptext6 0220                       __ptext7 0626                       __ptext8 0299  
                     __ptext9 038F                    ??_delay_ms 0072                    delay_ms@ms 0070  
        end_of_initialization 07FC               ?_Lcd_Print_Char 0070                    ??_read_adc 0022  
                  ??_init_pwm 007D               ___lldiv@divisor 0070               ___lldiv@counter 007D  
                  _ppm_lookup 0013                  ??_Lcd_SetBit 0070                     _PORTCbits 0007  
             read_adc@channel 0026                     _TRISCbits 0087                   _CCP1CONbits 0017  
          __end_of_Lcd_SetBit 0274                     _Lcd_Clear 01F0   calculate_lpg_ppm@voltage_mv 0026  
                   _Lcd_Start 0420                __end_of___wmul 0299      __end_of_Lcd_Print_Number 0420  
    __end_of_Lcd_Print_String 038F                 ?_pwm_set_duty 0020           start_initialization 07F8  
           Lcd_Print_Number@i 002A             Lcd_Print_String@a 0079             Lcd_Print_String@i 0020  
                  ?_Lcd_Clear 0070                      ??___wmul 0074                    ?_Lcd_Start 0070  
  Lcd_Print_Char@Lower_Nibble 0072                ??_pwm_set_duty 0022                     ___latbits 0002  
               __pcstackBANK0 0020                 ??_init_system 0076                      ?_Lcd_Cmd 0070  
            ___lwdiv@dividend 0078              ??_Lcd_Set_Cursor 0075                      ?___lldiv 0070  
                    ?___lwdiv 0076                      ?___lwmod 0070                     __pstrings 0003  
            ??_Lcd_Print_Char 0071              ___lwdiv@quotient 007A           __end_of_init_system 020D  
              ___wmul@product 0074                      Lcd_Cmd@a 0073                   ??_Lcd_Clear 0074  
                 ??_Lcd_Start 0074                   __stringbase 0012      check_gas_level@gas_value 0025  
           ___wmul@multiplier 0070             ??_check_gas_level 0027          __end_of_pwm_set_duty 02CF  
           _gas_alert_counter 0031                     read_adc@i 002B             ?_Lcd_Print_Number 0022  
          __end_of__stringtab 0013             ?_Lcd_Print_String 0079            ??_Lcd_Print_Number 0024  
          ??_Lcd_Print_String 007B                      _delay_ms 0220               ___lwdiv@divisor 0076  
             ___lwdiv@counter 007C                      __ptext10 06B4                      __ptext11 0274  
                    __ptext12 03D7                      __ptext13 02CF                      __ptext14 0307  
                    __ptext15 0349                      __ptext16 0475                      __ptext17 01F0  
                    __ptext18 0238                      __ptext19 0252                   _init_system 01FD  
                    _read_adc 0536                      _init_pwm 020D    Lcd_Print_Char@Upper_Nibble 0073  
          __end_of_ppm_lookup 0027              ___lwmod@dividend 0072              ___lldiv@dividend 0074  
                   stringcode 000D            Lcd_Set_Cursor@temp 0079              ___lldiv@quotient 0079  
             ___lwmod@divisor 0070               ___lwmod@counter 0074                      stringdir 000D  
                    stringtab 0003                   main@LPG_ppm 002D  calculate_lpg_ppm@rs_ro_ratio 0028  
